(dp0
S'wave-out'
p1
(lp2
(lp3
(I-2
I-3
I-3
I-2
I-3
I-1
I-4
I-1
tp4
a(I8
I14
I1
I-1
I0
I1
I0
I-2
tp5
a(I0
I4
I-1
I-4
I-3
I-1
I0
I0
tp6
a(I-2
I-10
I-3
I1
I0
I-2
I-1
I-2
tp7
a(I-2
I2
I-2
I-1
I-1
I-1
I1
I-1
tp8
a(I-8
I-6
I1
I-1
I1
I-1
I0
I-3
tp9
a(I0
I4
I2
I-1
I1
I0
I-2
I-2
tp10
a(I0
I-2
I0
I-2
I-2
I-4
I-2
I-1
tp11
a(I-2
I-3
I-2
I3
I2
I-3
I-1
I-3
tp12
a(I5
I4
I-1
I0
I0
I-2
I0
I-1
tp13
a(I-1
I-3
I-1
I-2
I-1
I0
I-1
I0
tp14
a(I-5
I-6
I-1
I-2
I-2
I0
I-1
I0
tp15
a(I-1
I-2
I-1
I-3
I-2
I2
I1
I0
tp16
a(I-4
I-7
I-1
I0
I-1
I-1
I-2
I-1
tp17
a(I2
I12
I0
I0
I0
I-1
I-2
I-1
tp18
a(I5
I-3
I-2
I-2
I-3
I-3
I-1
I0
tp19
a(I-1
I-5
I-2
I-2
I-1
I1
I-2
I0
tp20
a(I-4
I-4
I0
I0
I-1
I-1
I0
I-4
tp21
a(I3
I0
I-1
I-1
I-2
I-2
I0
I0
tp22
a(I-1
I4
I0
I-2
I0
I1
I0
I-2
tp23
a(I0
I-8
I-4
I0
I-3
I-2
I-1
I0
tp24
a(I-3
I-1
I-2
I0
I1
I0
I-1
I-1
tp25
a(I-4
I0
I0
I0
I1
I-1
I1
I-2
tp26
a(I1
I1
I-1
I0
I-1
I0
I-1
I-1
tp27
a(I-1
I5
I0
I-1
I0
I0
I-1
I-1
tp28
a(I0
I2
I0
I-3
I-2
I-1
I1
I0
tp29
a(I-3
I-2
I-1
I-1
I0
I1
I0
I0
tp30
a(I-5
I-3
I-2
I-1
I1
I-1
I0
I-1
tp31
a(I-1
I7
I1
I1
I1
I-1
I-2
I-2
tp32
a(I1
I-9
I-2
I-1
I0
I-2
I0
I-1
tp33
a(I0
I1
I1
I-1
I-2
I-1
I0
I0
tp34
a(I-3
I-3
I1
I0
I-1
I-3
I-1
I-1
tp35
a(I1
I-4
I-2
I0
I-1
I-1
I-3
I0
tp36
a(I0
I9
I2
I1
I0
I0
I0
I-1
tp37
a(I8
I1
I-3
I-3
I-2
I-1
I-2
I-1
tp38
a(I-2
I-3
I-2
I-1
I-1
I-1
I-2
I-1
tp39
a(I-5
I-5
I0
I-1
I1
I-1
I-1
I-3
tp40
a(I-3
I0
I-1
I0
I-2
I-2
I1
I0
tp41
a(I0
I-2
I0
I-1
I1
I1
I1
I0
tp42
a(I-2
I-2
I-2
I0
I-2
I-2
I-1
I-1
tp43
a(I-2
I-2
I-2
I2
I0
I1
I0
I-1
tp44
a(I-4
I2
I1
I-2
I-1
I-1
I-1
I-1
tp45
a(I0
I-2
I1
I1
I0
I-1
I-1
I-1
tp46
a(I2
I3
I-3
I-2
I-1
I0
I1
I-1
tp47
a(I-3
I11
I0
I-2
I-1
I0
I0
I-1
tp48
a(I-1
I-14
I-3
I-4
I-3
I-1
I-1
I0
tp49
a(I0
I-1
I-2
I2
I-1
I-1
I-1
I0
tp50
a(I-4
I-6
I-2
I-1
I0
I-1
I-1
I-3
tp51
a(I-1
I-4
I-2
I-1
I-1
I0
I-2
I-2
tp52
a(I-1
I-1
I0
I-1
I-1
I0
I-1
I-1
tp53
a(I-4
I-15
I-2
I-1
I-1
I-2
I-3
I-3
tp54
a(I-4
I-4
I-3
I-3
I-3
I-1
I-1
I-2
tp55
a(I1
I2
I0
I-2
I-2
I-2
I1
I0
tp56
a(I-6
I-9
I-4
I-8
I-2
I-5
I-4
I-2
tp57
a(I1
I1
I1
I-1
I1
I0
I-1
I0
tp58
a(I-1
I2
I-2
I-2
I0
I0
I-1
I-1
tp59
a(I2
I0
I-2
I-1
I-2
I-1
I-1
I0
tp60
a(I-1
I-2
I1
I-1
I0
I1
I0
I-1
tp61
a(I0
I-1
I0
I0
I-2
I0
I-2
I1
tp62
a(I-4
I5
I2
I1
I1
I0
I0
I-1
tp63
a(I0
I1
I-2
I-2
I-2
I-2
I-1
I0
tp64
a(I-5
I-2
I0
I2
I0
I0
I1
I-2
tp65
a(I-3
I-3
I-2
I-1
I0
I-1
I-3
I-1
tp66
a(I-1
I3
I0
I1
I0
I-1
I-3
I-1
tp67
a(I1
I0
I-1
I0
I1
I-1
I1
I-1
tp68
a(I-2
I4
I2
I-1
I-1
I0
I-1
I-1
tp69
a(I-3
I-19
I-4
I0
I-1
I-2
I-3
I-3
tp70
a(I-1
I2
I0
I-3
I-3
I-2
I-1
I0
tp71
a(I1
I7
I-1
I0
I-1
I-1
I-1
I-2
tp72
a(I-14
I-22
I-4
I-3
I-1
I1
I-1
I-5
tp73
a(I3
I5
I2
I-1
I0
I0
I0
I1
tp74
a(I2
I2
I-2
I1
I2
I1
I0
I1
tp75
a(I9
I37
I-1
I1
I0
I-1
I0
I2
tp76
a(I-2
I-20
I-2
I-3
I-3
I-1
I-2
I-4
tp77
a(I-1
I-4
I-4
I-2
I-2
I-1
I-2
I-1
tp78
a(I-2
I-2
I-1
I1
I-1
I-1
I-1
I0
tp79
a(I1
I4
I0
I-2
I-3
I-3
I-2
I-1
tp80
a(I0
I6
I-2
I0
I1
I2
I0
I-2
tp81
a(I-7
I-14
I-2
I-2
I-1
I-1
I-3
I-4
tp82
a(I-2
I-13
I-1
I-2
I-1
I-1
I0
I1
tp83
a(I1
I23
I-1
I2
I2
I0
I2
I0
tp84
a(I6
I-14
I-4
I-2
I-2
I-1
I-4
I-1
tp85
a(I2
I-3
I0
I-1
I-2
I-2
I-1
I0
tp86
a(I-4
I2
I-1
I2
I0
I-2
I0
I-2
tp87
a(I0
I5
I2
I-1
I-1
I-2
I-1
I1
tp88
a(I0
I10
I1
I-2
I-1
I0
I1
I0
tp89
a(I1
I-5
I1
I-2
I-1
I-1
I-1
I0
tp90
a(I-4
I-11
I-2
I-1
I-1
I-2
I-1
I-4
tp91
a(I2
I5
I0
I0
I-1
I-1
I0
I0
tp92
a(I6
I-5
I-2
I0
I-1
I0
I-1
I-2
tp93
a(I2
I-15
I-6
I-3
I-2
I-3
I-3
I0
tp94
a(I3
I2
I1
I0
I0
I-2
I-1
I0
tp95
a(I-6
I8
I-2
I-1
I0
I1
I-1
I-2
tp96
a(I-3
I-9
I-1
I0
I-2
I-1
I-2
I1
tp97
a(I-1
I-11
I-2
I1
I-1
I1
I-1
I-3
tp98
a(I-3
I-1
I-1
I-1
I-3
I0
I0
I1
tp99
a(I-4
I-6
I-2
I-1
I-1
I0
I-1
I1
tp100
a(I-4
I-6
I-4
I-2
I1
I-3
I-1
I-1
tp101
a(I1
I8
I0
I0
I-1
I-1
I1
I3
tp102
a(I3
I2
I0
I-3
I0
I0
I-1
I-3
tp103
a(I2
I-7
I-1
I-3
I-3
I-4
I-2
I-1
tp104
a(I-1
I1
I1
I1
I1
I-1
I1
I-2
tp105
a(I7
I-8
I-5
I-2
I-3
I-2
I-1
I1
tp106
a(I-7
I-13
I-2
I0
I0
I0
I-1
I-1
tp107
a(I-1
I-1
I0
I-4
I-3
I-2
I-1
I-1
tp108
a(I-1
I-4
I-3
I-3
I-2
I-3
I-2
I-3
tp109
a(I-11
I-7
I0
I2
I2
I3
I0
I-4
tp110
a(I-2
I2
I-1
I1
I-2
I0
I-2
I-2
tp111
a(I-5
I-3
I-2
I1
I1
I0
I-1
I-2
tp112
a(I4
I8
I-1
I1
I2
I0
I0
I0
tp113
a(I-2
I-9
I-2
I-2
I-5
I-3
I-2
I0
tp114
a(I-3
I-7
I-4
I-2
I-2
I0
I1
I-1
tp115
a(I7
I-4
I-4
I-3
I-1
I-2
I0
I-1
tp116
a(I-4
I-1
I0
I2
I-1
I0
I-4
I0
tp117
a(I-5
I2
I-1
I0
I-1
I1
I-1
I-3
tp118
a(I-1
I-13
I-2
I-1
I-2
I-2
I-2
I-1
tp119
a(I-4
I-2
I-1
I1
I-1
I-1
I-1
I-2
tp120
a(I-2
I13
I-1
I2
I0
I0
I1
I-2
tp121
a(I-2
I-4
I5
I-2
I-1
I0
I-2
I0
tp122
a(I3
I13
I-1
I-2
I0
I-1
I0
I-1
tp123
a(I3
I-3
I-3
I0
I-1
I-1
I0
I-1
tp124
a(I-5
I6
I1
I-3
I-1
I-1
I-1
I-1
tp125
a(I-3
I-3
I-1
I-3
I1
I0
I0
I-2
tp126
a(I6
I4
I4
I4
I-1
I-1
I0
I5
tp127
a(I-4
I-21
I-2
I1
I-1
I0
I0
I-2
tp128
a(I-3
I12
I2
I1
I2
I1
I0
I-2
tp129
a(I-4
I-2
I-4
I-2
I-1
I-2
I-1
I-1
tp130
a(I2
I3
I-2
I0
I0
I-1
I-2
I0
tp131
a(I-2
I5
I-2
I2
I4
I1
I1
I-2
tp132
a(I-1
I2
I1
I-5
I-4
I-1
I-2
I-2
tp133
a(I-1
I-3
I-2
I-2
I1
I1
I-1
I-1
tp134
a(I1
I6
I0
I-1
I-3
I-1
I-1
I-2
tp135
a(I3
I3
I-4
I-4
I-3
I-1
I-1
I-1
tp136
a(I-7
I1
I1
I0
I2
I1
I-1
I-3
tp137
a(I4
I-2
I-3
I0
I-1
I-1
I-1
I-1
tp138
a(I-2
I6
I2
I-1
I0
I-2
I1
I-1
tp139
a(I2
I2
I-1
I0
I-1
I-1
I-1
I1
tp140
a(I0
I11
I-2
I-1
I1
I1
I0
I-2
tp141
a(I1
I-1
I1
I-2
I-2
I0
I-2
I-2
tp142
a(I-3
I2
I-1
I-1
I1
I-1
I0
I0
tp143
a(I-18
I-27
I-4
I-3
I-2
I-3
I-2
I-6
tp144
a(I-2
I6
I2
I1
I1
I2
I-2
I-1
tp145
a(I-7
I-10
I-5
I-2
I1
I1
I-3
I-2
tp146
a(I1
I-6
I-1
I-1
I-2
I-2
I0
I-1
tp147
a(I1
I6
I-1
I1
I0
I0
I1
I0
tp148
a(I-2
I5
I1
I-3
I1
I1
I1
I-1
tp149
a(I2
I-4
I-1
I-2
I1
I0
I-2
I-2
tp150
a(I0
I7
I-1
I-2
I-1
I1
I-1
I-1
tp151
a(I-3
I-15
I-2
I-1
I-1
I-3
I-1
I0
tp152
a(I-6
I5
I3
I3
I1
I1
I-1
I0
tp153
a(I-4
I12
I3
I-2
I0
I0
I-1
I1
tp154
a(I-3
I7
I1
I2
I1
I0
I0
I0
tp155
a(I6
I-1
I-2
I-2
I-2
I-2
I1
I-1
tp156
a(I-6
I5
I-2
I-4
I-1
I-1
I-1
I0
tp157
a(I-6
I-48
I-5
I-2
I-1
I-2
I-2
I0
tp158
a(I-5
I-2
I0
I3
I2
I-1
I1
I-3
tp159
a(I5
I19
I0
I0
I-2
I-3
I-3
I1
tp160
a(I10
I12
I0
I-2
I1
I0
I-1
I1
tp161
a(I4
I21
I0
I-2
I0
I0
I-2
I1
tp162
a(I-4
I-13
I-3
I-3
I-2
I0
I-3
I-2
tp163
a(I-4
I11
I0
I0
I-1
I1
I0
I0
tp164
a(I6
I-14
I-2
I-1
I0
I-3
I-2
I1
tp165
a(I-11
I12
I4
I1
I2
I2
I1
I1
tp166
a(I5
I28
I0
I-1
I-1
I-1
I0
I1
tp167
a(I6
I5
I-1
I2
I2
I1
I0
I0
tp168
a(I-1
I4
I-1
I0
I-2
I-2
I-1
I0
tp169
a(I2
I-4
I-1
I-1
I0
I0
I-1
I-3
tp170
a(I10
I6
I2
I1
I-2
I-3
I-1
I2
tp171
a(I-4
I5
I-1
I-1
I1
I-2
I1
I-3
tp172
a(I-4
I1
I1
I-1
I0
I0
I-2
I-3
tp173
a(I-7
I-6
I-1
I-1
I-2
I-2
I-1
I-1
tp174
a(I-6
I3
I-1
I-2
I1
I-1
I-1
I-2
tp175
a(I-14
I-52
I-1
I1
I-1
I1
I-2
I-5
tp176
a(I-3
I0
I2
I-2
I-1
I-1
I0
I-1
tp177
a(I1
I6
I-1
I5
I-2
I-1
I-1
I-1
tp178
a(I10
I-16
I-5
I-3
I-3
I-3
I-1
I-1
tp179
a(I6
I26
I3
I2
I1
I2
I-1
I3
tp180
a(I-4
I-13
I-3
I-2
I0
I-2
I-2
I-4
tp181
a(I3
I9
I-1
I-3
I-3
I-2
I0
I1
tp182
a(I2
I2
I-1
I-2
I-1
I-1
I-1
I0
tp183
a(I-3
I2
I-1
I-3
I-3
I-2
I-2
I-2
tp184
a(I4
I4
I-1
I2
I-1
I0
I1
I0
tp185
a(I-3
I-5
I1
I-1
I-1
I0
I-2
I-2
tp186
a(I-2
I-4
I-3
I0
I-1
I1
I-2
I0
tp187
a(I-4
I2
I-1
I-1
I-1
I-1
I1
I-2
tp188
a(I8
I7
I0
I-1
I0
I-2
I0
I1
tp189
a(I0
I3
I13
I-2
I3
I1
I-1
I-1
tp190
a(I-1
I1
I-5
I-2
I0
I1
I-1
I0
tp191
a(I-4
I-7
I-5
I-1
I-2
I-1
I-3
I-2
tp192
a(I-2
I-3
I9
I2
I1
I-1
I-1
I-2
tp193
a(I-2
I0
I0
I2
I0
I-2
I0
I-1
tp194
a(I0
I-2
I-14
I-5
I-3
I-1
I-2
I0
tp195
a(I-3
I5
I-3
I6
I1
I0
I0
I-1
tp196
a(I-1
I-4
I-1
I-9
I-3
I1
I-1
I0
tp197
a(I0
I2
I-7
I0
I1
I3
I1
I-2
tp198
a(I0
I-4
I6
I-1
I-4
I-4
I-1
I0
tp199
a(I-1
I-5
I-21
I-3
I0
I-3
I-3
I-1
tp200
a(I0
I11
I44
I6
I2
I-1
I-1
I-1
tp201
a(I-1
I-8
I6
I-1
I2
I-2
I-1
I0
tp202
a(I1
I3
I-8
I0
I3
I1
I1
I-1
tp203
a(I-6
I-3
I-3
I-4
I-12
I-5
I-2
I-2
tp204
a(I-1
I-2
I-6
I-2
I-2
I-2
I-1
I-1
tp205
a(I1
I-3
I9
I2
I-1
I0
I-2
I0
tp206
a(I-1
I-4
I-2
I-8
I2
I0
I-2
I-2
tp207
a(I0
I2
I0
I1
I0
I0
I-1
I-2
tp208
a(I0
I-5
I22
I3
I0
I0
I0
I0
tp209
a(I1
I4
I6
I2
I3
I2
I2
I3
tp210
a(I-1
I1
I-8
I-2
I-5
I-1
I-2
I-3
tp211
a(I-2
I-6
I-12
I-2
I1
I1
I-1
I-1
tp212
a(I-3
I-5
I0
I0
I-3
I3
I-2
I-3
tp213
a(I2
I-7
I15
I-1
I-1
I-3
I-1
I-1
tp214
a(I0
I0
I-13
I-2
I-2
I-2
I-1
I0
tp215
a(I2
I-6
I-13
I-4
I1
I-1
I0
I-3
tp216
a(I2
I12
I16
I2
I-2
I-3
I-2
I-2
tp217
a(I-4
I-2
I7
I0
I-3
I-3
I-2
I-1
tp218
a(I-1
I-7
I-10
I-3
I-4
I-2
I0
I-2
tp219
a(I-1
I6
I-1
I-3
I0
I-2
I-3
I-1
tp220
a(I4
I-2
I-2
I5
I4
I4
I0
I1
tp221
a(I-1
I4
I7
I-3
I0
I-1
I-1
I-2
tp222
a(I-1
I-6
I-9
I7
I-6
I-2
I-1
I0
tp223
a(I-1
I28
I23
I-4
I-2
I-1
I-1
I-1
tp224
a(I7
I-13
I-3
I-4
I-4
I-3
I-5
I-2
tp225
a(I-3
I-19
I5
I3
I3
I-3
I0
I-2
tp226
a(I-3
I5
I-4
I0
I0
I-1
I-2
I0
tp227
a(I-2
I-2
I0
I-2
I-4
I-3
I0
I0
tp228
a(I-5
I-3
I-9
I3
I3
I1
I1
I0
tp229
a(I-1
I-1
I22
I-4
I-3
I-1
I-2
I0
tp230
a(I-6
I-15
I-4
I-3
I-2
I-2
I-1
I-1
tp231
a(I-1
I6
I-3
I3
I-1
I-3
I-1
I0
tp232
a(I-2
I-4
I-2
I-3
I1
I1
I-1
I-3
tp233
a(I-1
I-3
I-19
I-4
I0
I-2
I-1
I-2
tp234
a(I-2
I-5
I6
I-1
I-4
I-1
I-1
I-2
tp235
a(I-1
I1
I-5
I-4
I-3
I0
I0
I-1
tp236
a(I-3
I-5
I-2
I-1
I0
I-1
I0
I-2
tp237
a(I0
I1
I-3
I-1
I-3
I-2
I-1
I-1
tp238
a(I-3
I-7
I-7
I-2
I0
I-3
I-3
I-1
tp239
a(I-3
I9
I2
I3
I0
I-1
I0
I-1
tp240
a(I3
I-4
I5
I-2
I-3
I1
I-2
I-1
tp241
a(I0
I4
I-9
I-6
I-4
I-1
I-1
I0
tp242
a(I-1
I-8
I-5
I0
I-5
I-1
I-1
I1
tp243
a(I-3
I-2
I-8
I-1
I0
I1
I0
I0
tp244
a(I0
I0
I6
I-3
I0
I-1
I-1
I-1
tp245
a(I0
I-4
I1
I2
I5
I4
I0
I-2
tp246
a(I-3
I14
I6
I-7
I-6
I-6
I-1
I0
tp247
a(I4
I0
I1
I-6
I0
I0
I1
I-1
tp248
a(I-3
I-8
I-3
I1
I0
I-1
I-1
I-3
tp249
a(I-3
I0
I-11
I-12
I-5
I0
I-2
I-2
tp250
a(I0
I4
I21
I1
I-3
I-4
I-2
I-2
tp251
a(I-1
I4
I30
I-10
I-6
I-3
I-3
I-1
tp252
a(I0
I-3
I-8
I-1
I3
I1
I-1
I-2
tp253
a(I0
I1
I-23
I2
I1
I0
I-2
I-2
tp254
a(I-7
I-3
I16
I-1
I-3
I-4
I-3
I-2
tp255
a(I-1
I2
I-3
I1
I-2
I-2
I1
I0
tp256
a(I2
I5
I11
I-1
I-3
I-3
I-2
I-2
tp257
a(I1
I3
I31
I9
I1
I-1
I0
I1
tp258
a(I-1
I-7
I-3
I2
I-1
I1
I-1
I2
tp259
a(I-1
I-2
I-18
I-7
I1
I0
I-2
I-1
tp260
a(I-1
I1
I5
I-4
I-2
I-1
I-1
I-2
tp261
a(I-1
I-2
I-23
I-1
I2
I-1
I-1
I0
tp262
a(I-2
I1
I-2
I1
I-3
I-2
I1
I-2
tp263
a(I-2
I-2
I4
I0
I-3
I-1
I-1
I0
tp264
a(I3
I2
I-1
I-2
I-4
I-3
I-3
I-2
tp265
a(I-4
I-8
I16
I-11
I-9
I-2
I-4
I-4
tp266
a(I-5
I-12
I-9
I0
I-2
I-2
I-1
I-3
tp267
a(I0
I-17
I-73
I-7
I3
I4
I1
I2
tp268
a(I1
I10
I50
I8
I9
I3
I2
I-1
tp269
a(I-10
I-11
I-10
I-29
I-26
I-12
I-5
I-8
tp270
a(I21
I30
I44
I41
I17
I9
I7
I9
tp271
a(I-4
I-10
I-79
I-18
I1
I-1
I0
I-1
tp272
a(I-7
I-8
I14
I-6
I-11
I-8
I-5
I-4
tp273
a(I0
I18
I34
I-14
I-5
I-1
I-1
I-4
tp274
a(I-8
I10
I13
I-4
I-2
I1
I-3
I-9
tp275
a(I2
I25
I-21
I18
I-5
I-5
I-5
I-6
tp276
a(I-18
I0
I82
I-34
I-20
I-15
I-11
I-9
tp277
a(I3
I-8
I-69
I-11
I3
I3
I2
I8
tp278
a(I6
I-3
I34
I6
I8
I7
I4
I-2
tp279
a(I-8
I-5
I9
I9
I1
I-3
I0
I3
tp280
a(I-14
I-82
I-9
I-19
I-5
I-5
I-4
I-10
tp281
a(I19
I72
I46
I18
I16
I11
I8
I11
tp282
a(I-19
I-66
I-17
I-3
I-19
I-11
I-8
I-12
tp283
a(I-44
I-110
I41
I-52
I-21
I-19
I-14
I-21
tp284
a(I4
I66
I58
I47
I2
I-1
I-1
I0
tp285
a(I55
I80
I-86
I31
I36
I24
I20
I31
tp286
a(I-1
I-6
I-44
I-73
I-4
I6
I1
I-2
tp287
a(I-12
I-9
I-70
I-12
I0
I2
I-2
I-8
tp288
a(I-15
I-14
I42
I1
I-19
I-9
I-9
I-9
tp289
a(I5
I31
I-1
I-4
I-7
I3
I-1
I2
tp290
a(I34
I115
I29
I43
I24
I7
I7
I8
tp291
a(I-25
I-116
I116
I-96
I-14
I-4
I-5
I-9
tp292
a(I-17
I-44
I11
I-15
I-14
I-3
I-3
I-7
tp293
a(I34
I126
I15
I70
I23
I12
I9
I12
tp294
a(I4
I5
I58
I-9
I-41
I-19
I-11
I-9
tp295
a(I-11
I52
I89
I-2
I30
I9
I4
I0
tp296
a(I3
I3
I-42
I31
I2
I-6
I-1
I-1
tp297
a(I13
I4
I59
I117
I7
I5
I2
I4
tp298
a(I-15
I-33
I-25
I-99
I-7
I-2
I-6
I-7
tp299
a(I14
I-25
I-12
I20
I-23
I-8
I0
I5
tp300
a(I-40
I-22
I-24
I-76
I54
I12
I5
I-7
tp301
a(I0
I22
I-55
I-21
I-87
I-31
I-16
I-7
tp302
a(I-23
I-98
I-30
I95
I32
I4
I-3
I-10
tp303
a(I-22
I27
I84
I8
I-9
I-21
I-15
I-20
tp304
a(I68
I51
I113
I-22
I24
I38
I32
I42
tp305
a(I-16
I-94
I39
I-17
I10
I11
I4
I-2
tp306
a(I-9
I-93
I111
I-42
I-79
I-35
I-16
I-10
tp307
a(I28
I-63
I-40
I-37
I44
I13
I11
I16
tp308
a(I-46
I-72
I-77
I-2
I-11
I-9
I-8
I-14
tp309
a(I12
I-87
I-62
I33
I52
I38
I24
I23
tp310
a(I-39
I50
I-93
I106
I88
I21
I2
I-19
tp311
a(I17
I-29
I-25
I-25
I-128
I-38
I-12
I7
tp312
a(I-9
I49
I-80
I78
I52
I1
I-2
I-6
tp313
a(I20
I15
I-128
I-17
I-42
I-4
I-3
I4
tp314
a(I27
I14
I19
I-128
I7
I5
I8
I15
tp315
a(I-12
I-14
I-25
I78
I21
I10
I0
I-9
tp316
a(I-40
I-39
I-35
I-115
I-88
I-43
I-27
I-25
tp317
a(I-23
I-73
I-41
I106
I19
I-5
I-7
I-11
tp318
a(I-7
I59
I6
I-61
I-26
I-14
I-7
I-8
tp319
a(I-3
I109
I-20
I-33
I20
I3
I0
I2
tp320
a(I-20
I-99
I60
I-22
I-41
I-4
I0
I-2
tp321
a(I104
I127
I99
I-96
I-29
I22
I28
I47
tp322
a(I-20
I-64
I-61
I22
I7
I-6
I-7
I-13
tp323
a(I54
I81
I93
I-74
I13
I17
I12
I22
tp324
a(I17
I3
I-57
I47
I7
I17
I18
I18
tp325
a(I-79
I-77
I-8
I36
I-61
I-52
I-39
I-51
tp326
a(I47
I41
I29
I20
I12
I12
I17
I25
tp327
a(I-43
I-74
I4
I-80
I-89
I-42
I-28
I-28
tp328
a(I-10
I-41
I-47
I52
I43
I12
I9
I-2
tp329
a(I24
I127
I8
I14
I7
I16
I12
I12
tp330
a(I14
I56
I25
I55
I6
I5
I4
I11
tp331
a(I-8
I-40
I-109
I8
I57
I21
I5
I-1
tp332
a(I25
I115
I56
I4
I-22
I-3
I-1
I7
tp333
a(I5
I109
I60
I56
I-15
I-10
I-6
I-4
tp334
a(I-30
I-82
I-1
I27
I62
I8
I-2
I-12
tp335
a(I20
I-38
I-128
I32
I-19
I-4
I-3
I2
tp336
a(I22
I-36
I-105
I-83
I-42
I13
I15
I22
tp337
a(I-14
I-98
I-79
I-54
I33
I19
I3
I2
tp338
a(I-1
I-23
I-6
I114
I-76
I-14
I-5
I3
tp339
a(I-54
I-63
I-6
I9
I16
I-16
I-15
I-27
tp340
a(I12
I-43
I24
I-106
I56
I34
I20
I17
tp341
a(I-17
I-38
I90
I6
I-27
I-20
I-12
I-16
tp342
a(I31
I69
I-12
I27
I-50
I-5
I7
I12
tp343
a(I8
I81
I19
I46
I35
I11
I5
I6
tp344
a(I-38
I-104
I-87
I-32
I-25
I-23
I-21
I-27
tp345
a(I-8
I-11
I31
I102
I64
I19
I10
I4
tp346
a(I39
I102
I86
I-66
I9
I8
I-2
I12
tp347
a(I13
I-14
I-3
I18
I0
I-6
I5
I6
tp348
a(I-53
I-73
I-95
I62
I21
I-12
I-13
I-29
tp349
a(I-38
I-73
I73
I7
I-64
I-27
I-20
I-20
tp350
a(I35
I-19
I-128
I-108
I34
I34
I24
I25
tp351
a(I-9
I-25
I-103
I-10
I-10
I-18
I-11
I-13
tp352
a(I4
I62
I75
I47
I47
I3
I2
I-1
tp353
a(I42
I57
I-68
I-5
I-10
I16
I12
I20
tp354
a(I-18
I-55
I-26
I44
I-2
I-16
I-12
I-12
tp355
a(I19
I127
I-8
I85
I-4
I12
I10
I9
tp356
a(I11
I-109
I41
I-13
I-38
I-18
I-12
I-6
tp357
a(I-32
I-111
I-2
I8
I45
I-15
I-4
I-7
tp358
a(I17
I38
I7
I62
I1
I25
I12
I10
tp359
a(I15
I77
I-40
I21
I25
I-3
I7
I8
tp360
a(I-38
I-125
I27
I42
I1
I-7
I-11
I-18
tp361
a(I24
I56
I-4
I62
I29
I-1
I2
I0
tp362
a(I-51
I-87
I27
I-9
I-36
I-25
I-21
I-27
tp363
a(I14
I49
I-34
I-47
I-37
I-1
I3
I9
tp364
a(I5
I-83
I-103
I96
I69
I32
I20
I17
tp365
a(I-37
I-82
I92
I-128
I-24
I-12
I-16
I-18
tp366
a(I32
I53
I4
I110
I96
I31
I12
I13
tp367
a(I-20
I26
I-113
I-92
I-37
I-5
I-3
I-10
tp368
a(I0
I37
I101
I106
I-43
I-32
I-14
I-10
tp369
a(I5
I-21
I12
I63
I-32
I-16
I-3
I1
tp370
a(I6
I2
I102
I-45
I-36
I-6
I5
I7
tp371
a(I23
I60
I-67
I11
I20
I9
I9
I10
tp372
a(I35
I31
I-32
I-9
I65
I30
I16
I18
tp373
a(I-1
I5
I-12
I-1
I-41
I-8
I-5
I0
tp374
a(I-10
I-45
I-25
I89
I21
I-8
I4
I-4
tp375
a(I5
I27
I17
I-51
I-41
I-6
I-6
I-1
tp376
a(I-26
I-52
I-48
I-14
I-51
I-25
I-14
I-13
tp377
a(I5
I-15
I28
I-44
I-2
I0
I-1
I2
tp378
a(I1
I38
I-15
I-44
I-18
I-2
I-4
I-1
tp379
a(I2
I22
I12
I21
I12
I4
I-1
I2
tp380
a(I-42
I-52
I-51
I-41
I-46
I-27
I-19
I-27
tp381
a(I-3
I-59
I25
I14
I3
I11
I7
I7
tp382
a(I10
I-25
I-18
I11
I-19
I0
I-2
I0
tp383
a(I-5
I12
I-42
I-23
I-1
I-6
I-1
I-4
tp384
a(I-13
I-87
I-11
I-5
I-6
I-9
I-5
I-5
tp385
a(I-8
I8
I-48
I-1
I10
I7
I7
I4
tp386
a(I18
I50
I58
I1
I-10
I2
I3
I7
tp387
a(I-8
I-78
I-20
I-13
I-6
I-4
I-3
I-7
tp388
a(I8
I62
I-4
I-3
I14
I-4
I0
I0
tp389
a(I-12
I-35
I-14
I-15
I-3
I13
I-1
I-9
tp390
a(I-1
I-2
I-48
I-14
I-11
I-3
I5
I15
tp391
a(I4
I37
I78
I8
I15
I4
I4
I-5
tp392
a(I0
I-40
I-39
I-17
I-15
I-1
I-1
I5
tp393
a(I8
I28
I-2
I-6
I-3
I-1
I10
I53
tp394
a(I-11
I-10
I-18
I-10
I12
I-1
I-5
I-59
tp395
a(I4
I-53
I-21
I-11
I-18
I-5
I9
I54
tp396
a(I-8
I-27
I20
I-1
I-9
I-6
I-1
I-27
tp397
a(I6
I10
I-40
I-17
I0
I-5
I-6
I-1
tp398
a(I6
I11
I5
I2
I-9
I-2
I6
I17
tp399
a(I-20
I-5
I3
I0
I23
I7
I-8
I-61
tp400
a(I-9
I6
I2
I-2
I-7
I1
I-1
I33
tp401
a(I-24
I-10
I83
I4
I-1
I3
I-8
I-43
tp402
a(I17
I25
I-6
I-3
I-2
I-2
I2
I32
tp403
a(I-8
I-5
I5
I-9
I-6
I-11
I-6
I7
tp404
a(I-13
I16
I-10
I2
I5
I3
I2
I-25
tp405
a(I13
I24
I-18
I-1
I-4
I-3
I2
I-8
tp406
a(I-1
I-18
I-2
I-6
I-6
I-2
I-1
I-3
tp407
a(I-13
I-35
I-3
I3
I2
I2
I-4
I-15
tp408
a(I2
I10
I19
I-1
I0
I-3
I-1
I-12
tp409
a(I2
I-11
I-79
I1
I12
I2
I4
I16
tp410
a(I20
I-25
I10
I10
I3
I-7
I2
I3
tp411
a(I14
I12
I-11
I-4
I0
I0
I2
I17
tp412
a(I-10
I-20
I-38
I-11
I-6
I-8
I-9
I-21
tp413
a(I6
I34
I28
I6
I5
I-2
I9
I58
tp414
a(I-21
I15
I3
I7
I11
I9
I1
I-23
tp415
a(I9
I-14
I-3
I-4
I-14
I-6
I-3
I-10
tp416
a(I-5
I-8
I-15
I-16
I-10
I-4
I0
I12
tp417
a(I-11
I-66
I-5
I-6
I-2
I-2
I-5
I-19
tp418
a(I9
I-2
I12
I-1
I1
I6
I-4
I-10
tp419
a(I-7
I45
I19
I2
I8
I3
I1
I3
tp420
a(I12
I6
I7
I5
I-4
I-2
I1
I-1
tp421
a(I-2
I12
I20
I3
I-2
I1
I1
I3
tp422
a(I-5
I-44
I-19
I-4
I-1
I1
I-3
I-4
tp423
a(I-4
I16
I-5
I-5
I-5
I-5
I-4
I-7
tp424
a(I-2
I-45
I-14
I-3
I3
I0
I0
I-2
tp425
a(I1
I16
I16
I6
I7
I3
I2
I3
tp426
a(I-2
I7
I-16
I-11
I-4
I2
I-2
I-2
tp427
a(I0
I-1
I57
I-5
I-9
I0
I-2
I-2
tp428
a(I1
I7
I-1
I2
I6
I2
I-2
I1
tp429
a(I-4
I-23
I-10
I-11
I-19
I-9
I-8
I-5
tp430
a(I4
I14
I26
I5
I2
I1
I0
I1
tp431
a(I-3
I-5
I-13
I-1
I5
I1
I0
I1
tp432
a(I-1
I-14
I-27
I-5
I5
I0
I-1
I-2
tp433
a(I-2
I-5
I9
I-6
I-2
I-2
I-2
I-1
tp434
a(I3
I1
I-6
I1
I-1
I-3
I1
I-1
tp435
a(I1
I-4
I-1
I2
I-2
I-3
I0
I-3
tp436
a(I-4
I6
I-3
I-3
I-3
I-1
I-2
I-2
tp437
a(I5
I-2
I-25
I4
I8
I2
I1
I2
tp438
a(I1
I9
I20
I-5
I-5
I1
I-1
I-1
tp439
a(I-2
I-7
I-26
I-4
I-5
I-6
I-3
I-2
tp440
a(I1
I33
I29
I4
I3
I3
I3
I4
tp441
a(I-3
I-52
I-8
I-7
I-4
I-3
I-2
I-4
tp442
a(I-2
I-3
I2
I5
I-3
I-2
I0
I-3
tp443
a(I-3
I2
I-23
I-4
I0
I-3
I0
I-3
tp444
a(I2
I-6
I20
I4
I-1
I-2
I-2
I1
tp445
a(I-5
I28
I6
I-8
I5
I4
I3
I1
tp446
a(I1
I-2
I13
I1
I-7
I-2
I-1
I0
tp447
a(I-1
I-9
I-18
I-4
I-1
I-1
I-2
I-2
tp448
a(I-3
I8
I-10
I-2
I-3
I1
I0
I1
tp449
a(I0
I-1
I-9
I-6
I-10
I-5
I-3
I-3
tp450
a(I-5
I-9
I-14
I-7
I-3
I-4
I0
I-1
tp451
a(I-3
I4
I-23
I-6
I-7
I-2
I-2
I-3
tp452
a(I-2
I-11
I2
I3
I-1
I-5
I0
I0
tp453
a(I5
I10
I12
I3
I8
I4
I1
I3
tp454
a(I-8
I-54
I-3
I-6
I-2
I-2
I-2
I-4
tp455
a(I-2
I-4
I-10
I-3
I-5
I-1
I-4
I-2
tp456
a(I3
I32
I-10
I-7
I-5
I2
I-1
I-1
tp457
a(I-7
I-19
I-26
I-2
I0
I0
I-1
I-1
tp458
a(I-2
I5
I5
I0
I1
I1
I1
I-2
tp459
a(I-1
I-14
I7
I0
I0
I-1
I-1
I-3
tp460
a(I-1
I15
I-22
I0
I4
I5
I0
I1
tp461
a(I0
I-8
I6
I-3
I-5
I0
I-2
I-2
tp462
a(I-1
I-1
I1
I1
I3
I2
I0
I0
tp463
a(I-1
I-6
I15
I-4
I-4
I-3
I-3
I-1
tp464
a(I6
I-1
I8
I0
I0
I-2
I-3
I-2
tp465
a(I-12
I-21
I-24
I-3
I-1
I0
I-2
I-2
tp466
a(I-2
I13
I38
I1
I-4
I-2
I0
I0
tp467
a(I-1
I4
I-9
I3
I2
I0
I-1
I-1
tp468
a(I-15
I-37
I-14
I1
I-1
I0
I0
I-4
tp469
a(I1
I8
I-5
I-2
I0
I0
I-1
I-3
tp470
a(I-2
I3
I7
I-1
I1
I-1
I-2
I-1
tp471
a(I-1
I-8
I7
I1
I-3
I-3
I-2
I-1
tp472
a(I-1
I21
I-7
I2
I2
I-5
I1
I2
tp473
a(I1
I-5
I10
I-4
I-7
I-7
I-2
I-2
tp474
a(I4
I9
I4
I2
I2
I0
I2
I1
tp475
a(I1
I-3
I-20
I-8
I1
I0
I-2
I-2
tp476
a(I-1
I-2
I21
I3
I2
I1
I-3
I-1
tp477
a(I-4
I-10
I-37
I-13
I-6
I-5
I-2
I-2
tp478
a(I-1
I8
I31
I14
I-3
I2
I-1
I0
tp479
a(I-2
I-6
I-8
I-1
I1
I-1
I0
I-3
tp480
a(I4
I3
I16
I3
I0
I4
I1
I-1
tp481
a(I-1
I12
I21
I7
I4
I-1
I1
I1
tp482
a(I1
I-4
I-15
I-4
I-4
I-6
I-2
I-1
tp483
a(I0
I-9
I-5
I-5
I-6
I-2
I-1
I-3
tp484
a(I-5
I0
I-28
I-3
I6
I-1
I0
I1
tp485
a(I-8
I-32
I26
I2
I-2
I-1
I-1
I-2
tp486
a(I4
I3
I7
I6
I-1
I-2
I0
I0
tp487
a(I2
I13
I6
I1
I2
I3
I1
I1
tp488
a(I-6
I-16
I-10
I-6
I-1
I-2
I-2
I-3
tp489
a(I5
I35
I-11
I-2
I-1
I-2
I1
I0
tp490
a(I1
I-9
I-10
I1
I0
I-3
I-2
I-1
tp491
a(I-1
I9
I4
I-7
I-2
I0
I0
I0
tp492
a(I-1
I-11
I19
I1
I-1
I-3
I-1
I-1
tp493
a(I-2
I2
I3
I2
I1
I2
I1
I0
tp494
a(I-5
I0
I-29
I-2
I-1
I-2
I1
I2
tp495
a(I1
I6
I25
I2
I-1
I1
I-2
I-2
tp496
a(I0
I10
I-13
I-3
I-1
I-4
I-1
I0
tp497
a(I-2
I4
I-8
I2
I1
I1
I-1
I-1
tp498
a(I3
I-3
I5
I-4
I-2
I-2
I-2
I-1
tp499
a(I-5
I-12
I-5
I1
I2
I-2
I-1
I-1
tp500
a(I0
I0
I-31
I-6
I-5
I-1
I-1
I-3
tp501
a(I-2
I-2
I31
I5
I2
I1
I0
I1
tp502
a(I-1
I1
I7
I-4
I-4
I-5
I-1
I-3
tp503
a(I4
I13
I13
I0
I0
I0
I0
I0
tp504
a(I0
I-3
I-4
I1
I-3
I-2
I-2
I-2
tp505
a(I-1
I-2
I-45
I-4
I-3
I-3
I-3
I0
tp506
a(I-1
I14
I46
I9
I7
I4
I4
I2
tp507
a(I1
I-15
I1
I0
I-2
I-1
I-2
I-2
tp508
a(I1
I10
I0
I-1
I-2
I-2
I0
I0
tp509
a(I1
I-15
I-9
I-4
I-5
I-2
I-1
I-3
tp510
a(I0
I-1
I-20
I-3
I1
I-1
I-1
I-1
tp511
a(I0
I5
I13
I3
I-1
I-1
I-1
I0
tp512
a(I1
I-5
I-6
I-6
I2
I2
I1
I0
tp513
a(I2
I17
I-7
I-1
I-1
I1
I1
I-1
tp514
a(I-2
I-18
I6
I-3
I-1
I0
I-2
I-2
tp515
a(I0
I3
I-4
I-2
I-1
I-1
I0
I0
tp516
a(I-8
I-37
I-19
I-6
I-3
I-3
I-4
I-5
tp517
a(I1
I-2
I-1
I1
I4
I3
I0
I1
tp518
a(I1
I3
I11
I4
I0
I-1
I-1
I-2
tp519
a(I-1
I-2
I-17
I-1
I-2
I-4
I0
I-2
tp520
a(I3
I16
I31
I1
I2
I0
I-1
I0
tp521
a(I-3
I2
I11
I-3
I-3
I-1
I-1
I-3
tp522
a(I-2
I7
I-22
I-1
I-1
I-1
I1
I2
tp523
a(I-2
I-6
I29
I4
I3
I2
I1
I-2
tp524
a(I-1
I-2
I-21
I-2
I5
I3
I0
I0
tp525
a(I0
I1
I32
I0
I-8
I-2
I-3
I-1
tp526
a(I-1
I4
I-23
I-5
I-1
I-2
I-1
I-1
tp527
a(I-4
I-19
I-5
I-2
I-2
I-3
I-2
I-2
tp528
a(I0
I-3
I-8
I-1
I0
I-1
I0
I-2
tp529
a(I-1
I-8
I-22
I-5
I0
I-2
I-1
I-1
tp530
a(I-2
I5
I9
I-3
I-2
I-5
I0
I-1
tp531
a(I5
I35
I3
I0
I-1
I-6
I-2
I0
tp532
a(I2
I2
I4
I-2
I-4
I1
I1
I1
tp533
a(I-1
I-9
I-16
I-1
I0
I-1
I-2
I-1
tp534
a(I3
I4
I25
I5
I3
I3
I2
I1
tp535
a(I-4
I-7
I-27
I-6
I-4
I-3
I-2
I-3
tp536
a(I-1
I6
I11
I-1
I-1
I-4
I-2
I-1
tp537
a(I1
I-2
I6
I-1
I2
I1
I-1
I-1
tp538
a(I-3
I-6
I-23
I-8
I-4
I0
I-2
I-1
tp539
a(I-3
I4
I-12
I-1
I-1
I-6
I-2
I-3
tp540
a(I-3
I-2
I13
I2
I-1
I4
I-1
I-2
tp541
a(I-2
I-3
I12
I-1
I2
I0
I1
I-1
tp542
a(I-3
I-6
I-3
I0
I-4
I-2
I-3
I-1
tp543
a(I1
I-8
I-15
I-1
I3
I0
I-2
I1
tp544
a(I-6
I2
I11
I0
I-2
I0
I-1
I-2
tp545
a(I1
I-14
I-11
I3
I1
I-2
I-3
I-2
tp546
a(I-2
I-10
I-10
I-6
I-6
I0
I-3
I-2
tp547
a(I0
I5
I4
I5
I4
I-1
I-1
I1
tp548
a(I-1
I-3
I-26
I-5
I-3
I-1
I0
I1
tp549
a(I0
I25
I27
I5
I3
I6
I2
I1
tp550
a(I-3
I-3
I-10
I2
I-1
I-6
I-1
I-2
tp551
a(I-4
I-9
I-10
I-1
I-1
I0
I0
I0
tp552
a(I-1
I3
I-8
I2
I0
I-3
I-1
I-2
tp553
a(I0
I2
I19
I-1
I-1
I-4
I1
I-1
tp554
a(I1
I-6
I-2
I0
I2
I0
I0
I-2
tp555
a(I2
I0
I-3
I2
I1
I-1
I1
I0
tp556
a(I-1
I-6
I-11
I-6
I-1
I1
I-1
I-2
tp557
a(I-4
I0
I-8
I-6
I-6
I-5
I-4
I-2
tp558
a(I2
I-3
I19
I6
I-1
I0
I0
I-1
tp559
a(I-1
I-2
I-13
I-1
I-2
I-6
I-1
I-2
tp560
a(I1
I2
I-8
I-4
I3
I0
I-1
I-1
tp561
a(I0
I-3
I4
I2
I2
I-3
I1
I-1
tp562
a(I-1
I-1
I4
I-3
I1
I4
I-2
I-3
tp563
a(I-1
I12
I0
I-4
I-4
I-4
I-2
I-2
tp564
a(I-1
I-8
I-11
I1
I-2
I-2
I1
I1
tp565
a(I-1
I-4
I-3
I2
I3
I0
I-3
I1
tp566
a(I-2
I8
I-4
I-4
I0
I2
I0
I0
tp567
a(I5
I8
I-7
I-2
I0
I0
I0
I-2
tp568
a(I2
I-1
I7
I1
I-2
I-2
I-1
I-2
tp569
a(I-2
I-10
I-6
I1
I0
I1
I-3
I-3
tp570
a(I-3
I-3
I-6
I-2
I-1
I1
I0
I-2
tp571
a(I1
I4
I7
I0
I2
I-1
I0
I-1
tp572
a(I1
I4
I1
I-5
I-5
I-4
I-4
I-1
tp573
a(I0
I1
I-6
I3
I-3
I0
I2
I0
tp574
a(I-2
I-2
I-25
I-7
I-4
I-2
I-1
I-1
tp575
a(I-1
I-8
I26
I1
I0
I1
I0
I-3
tp576
a(I1
I11
I13
I0
I0
I-1
I-1
I-2
tp577
a(I-7
I2
I-16
I-5
I-3
I-1
I1
I-2
tp578
a(I2
I-10
I0
I-1
I-2
I-4
I-4
I-1
tp579
a(I1
I1
I-12
I-2
I2
I1
I-1
I-2
tp580
a(I-1
I7
I29
I6
I1
I1
I-1
I0
tp581
a(I3
I-6
I-17
I-5
I-2
I-3
I-1
I-3
tp582
a(I-1
I-1
I21
I3
I0
I2
I-2
I-1
tp583
a(I-2
I4
I-3
I-2
I-2
I-2
I-1
I0
tp584
a(I2
I3
I7
I1
I-3
I-2
I0
I0
tp585
a(I-1
I0
I-16
I-9
I-4
I-3
I-1
I0
tp586
a(I-4
I-16
I-2
I2
I1
I1
I0
I-1
tp587
a(I-12
I-36
I23
I3
I1
I0
I-1
I-4
tp588
a(I0
I-5
I-3
I-2
I0
I-2
I-3
I-1
tp589
a(I2
I7
I-15
I1
I-2
I4
I0
I2
tp590
a(I3
I-4
I-12
I1
I1
I-1
I1
I0
tp591
a(I-1
I9
I-5
I-4
I-2
I0
I-2
I-2
tp592
a(I1
I24
I23
I3
I1
I1
I2
I1
tp593
a(I3
I7
I-1
I0
I-1
I-2
I-1
I-2
tp594
a(I-4
I-8
I3
I-3
I-1
I-3
I-5
I-2
tp595
a(I-1
I-2
I0
I1
I1
I-1
I0
I-3
tp596
a(I0
I-8
I12
I-2
I-1
I0
I1
I-1
tp597
a(I1
I4
I2
I1
I4
I5
I1
I1
tp598
a(I-3
I-8
I-3
I2
I-2
I-3
I-1
I1
tp599
a(I-7
I-11
I-7
I-3
I-3
I-4
I-1
I-2
tp600
a(I4
I13
I3
I3
I3
I1
I3
I1
tp601
a(I0
I-4
I16
I-1
I-6
I-1
I1
I-1
tp602
a(I-2
I-7
I-20
I-1
I-1
I-1
I-2
I-2
tp603
a(I-1
I6
I1
I-2
I-1
I-1
I-1
I-1
tp604
a(I0
I-7
I0
I-1
I-2
I-2
I-1
I-3
tp605
a(I0
I-2
I-14
I-1
I2
I2
I-2
I0
tp606
a(I-1
I2
I-3
I1
I0
I0
I2
I1
tp607
a(I-1
I-4
I-9
I0
I-2
I0
I-1
I-2
tp608
a(I-2
I-2
I-5
I-5
I0
I0
I-3
I-2
tp609
a(I-1
I-10
I-11
I-3
I-4
I-3
I-3
I-2
tp610
a(I2
I0
I18
I-1
I-2
I-2
I0
I0
tp611
a(I-1
I-3
I-14
I-1
I-1
I-1
I-3
I0
tp612
a(I0
I2
I3
I1
I0
I-2
I-1
I0
tp613
a(I-1
I-1
I-15
I-1
I-2
I0
I0
I0
tp614
a(I0
I0
I24
I1
I0
I-3
I-1
I-2
tp615
a(I1
I12
I8
I-2
I0
I-3
I0
I-1
tp616
a(I-2
I-12
I-8
I0
I-2
I-1
I-1
I-1
tp617
a(I-1
I1
I-14
I-2
I-1
I1
I-3
I-1
tp618
a(I-1
I-1
I-6
I-2
I0
I0
I-1
I-2
tp619
a(I1
I-2
I-4
I5
I4
I-3
I1
I0
tp620
a(I-4
I-7
I2
I-3
I-6
I5
I2
I-1
tp621
a(I-2
I15
I22
I-1
I-2
I-4
I0
I-2
tp622
a(I1
I11
I7
I-3
I-3
I0
I-1
I-2
tp623
a(I-1
I0
I-3
I-4
I-6
I0
I-1
I-1
tp624
a(I0
I-7
I-5
I-1
I-3
I-6
I2
I0
tp625
a(I-3
I-1
I-22
I-3
I-1
I0
I-2
I0
tp626
a(I2
I0
I34
I1
I-1
I-1
I-1
I-1
tp627
a(I-3
I-4
I-16
I2
I1
I-2
I-2
I-2
tp628
a(I-2
I-9
I-4
I-2
I2
I1
I-2
I1
tp629
a(I0
I7
I27
I0
I-6
I-1
I-1
I-1
tp630
a(I3
I-2
I-27
I-3
I-2
I-1
I-2
I0
tp631
a(I-3
I3
I5
I3
I3
I2
I-1
I-3
tp632
a(I-2
I4
I-6
I-6
I-7
I-6
I-3
I-2
tp633
a(I1
I-12
I-14
I-5
I0
I1
I1
I0
tp634
a(I-4
I-3
I6
I4
I1
I-5
I-3
I-3
tp635
a(I1
I1
I16
I-3
I-2
I-1
I0
I0
tp636
a(I-3
I-4
I-15
I2
I3
I2
I-1
I0
tp637
aa(lp638
(I2
I2
I-3
I-3
I0
I0
I1
I-1
tp639
a(I-1
I-2
I5
I1
I1
I2
I1
I-2
tp640
a(I-2
I2
I-26
I-5
I-1
I-2
I-1
I-2
tp641
a(I1
I1
I40
I5
I2
I1
I1
I-1
tp642
a(I-4
I0
I12
I1
I-4
I1
I-2
I-2
tp643
a(I-1
I-2
I-7
I-2
I-1
I-1
I-2
I-1
tp644
a(I-2
I0
I-12
I0
I1
I2
I-1
I-1
tp645
a(I-1
I-2
I-5
I-4
I-4
I-4
I0
I1
tp646
a(I-1
I-9
I6
I-1
I0
I-2
I0
I0
tp647
a(I0
I1
I4
I2
I-2
I-2
I-3
I0
tp648
a(I-2
I-4
I-17
I-1
I-1
I-1
I-1
I0
tp649
a(I1
I-1
I4
I2
I2
I5
I3
I-1
tp650
a(I0
I-2
I-6
I-1
I0
I1
I-1
I-1
tp651
a(I0
I3
I12
I-1
I-3
I-5
I-2
I-1
tp652
a(I-2
I2
I4
I0
I-2
I2
I-2
I-1
tp653
a(I-3
I1
I-3
I4
I1
I-3
I-1
I-2
tp654
a(I-1
I-3
I-3
I-5
I-2
I0
I1
I-2
tp655
a(I-2
I-2
I-15
I-5
I-5
I-4
I-3
I-1
tp656
a(I0
I4
I21
I5
I1
I1
I1
I0
tp657
a(I-1
I-5
I-25
I-3
I-2
I-2
I-2
I-1
tp658
a(I-3
I-3
I-5
I-2
I-1
I-3
I-2
I-2
tp659
a(I0
I-5
I-6
I-1
I2
I0
I-2
I1
tp660
a(I-2
I2
I-8
I-3
I-4
I-2
I-2
I-1
tp661
a(I1
I5
I-3
I0
I2
I1
I2
I0
tp662
a(I-2
I3
I0
I-2
I-7
I-5
I-2
I-1
tp663
a(I-1
I0
I16
I3
I0
I1
I0
I0
tp664
a(I-2
I1
I-6
I1
I0
I1
I-1
I-1
tp665
a(I0
I-6
I-10
I-2
I0
I0
I0
I0
tp666
a(I1
I1
I8
I1
I-1
I-2
I0
I-1
tp667
a(I4
I1
I2
I-3
I-3
I0
I-2
I0
tp668
a(I0
I-5
I-27
I-3
I0
I-2
I0
I-2
tp669
a(I2
I1
I40
I4
I3
I3
I0
I-1
tp670
a(I-2
I4
I-17
I1
I1
I0
I-1
I0
tp671
a(I-3
I-5
I12
I-3
I-4
I-6
I-4
I-1
tp672
a(I1
I0
I7
I0
I0
I0
I1
I0
tp673
a(I0
I-4
I-6
I-2
I2
I2
I-1
I-2
tp674
a(I5
I8
I11
I4
I0
I0
I-1
I0
tp675
a(I1
I6
I-12
I0
I3
I2
I-1
I0
tp676
a(I-1
I-8
I5
I-2
I-1
I-2
I-2
I-2
tp677
a(I-2
I-7
I-4
I-1
I-2
I-1
I-2
I-1
tp678
a(I-2
I-3
I-1
I-2
I-2
I-2
I-2
I-2
tp679
a(I-1
I7
I-2
I-1
I-1
I-1
I-1
I-1
tp680
a(I0
I-3
I-4
I0
I1
I3
I1
I1
tp681
a(I-1
I3
I1
I-3
I-2
I0
I-1
I-1
tp682
a(I0
I2
I24
I4
I3
I-2
I1
I1
tp683
a(I0
I-1
I3
I-2
I-7
I-3
I1
I-1
tp684
a(I0
I6
I-6
I-1
I-2
I-3
I-2
I1
tp685
a(I0
I-3
I-4
I1
I0
I-1
I-1
I-1
tp686
a(I-1
I-6
I-23
I-5
I-1
I-1
I-1
I-2
tp687
a(I-4
I-2
I4
I1
I2
I2
I0
I-1
tp688
a(I-2
I-1
I-3
I-2
I0
I-1
I-1
I-1
tp689
a(I-1
I-6
I-7
I-4
I-4
I0
I-2
I-1
tp690
a(I-1
I-7
I-26
I-9
I-2
I0
I-1
I-4
tp691
a(I-2
I1
I44
I4
I-1
I-2
I0
I-2
tp692
a(I-1
I1
I-3
I0
I1
I1
I0
I1
tp693
a(I-4
I-8
I-6
I-2
I-4
I-1
I-2
I-1
tp694
a(I3
I-1
I-10
I0
I-3
I-2
I-1
I-1
tp695
a(I-1
I-3
I4
I-2
I1
I2
I1
I-1
tp696
a(I-1
I2
I5
I0
I0
I-3
I0
I0
tp697
a(I1
I0
I-6
I-2
I-1
I-2
I-2
I-2
tp698
a(I-1
I2
I-6
I-1
I-2
I0
I-1
I-1
tp699
a(I0
I-3
I-1
I1
I1
I3
I-2
I0
tp700
a(I-2
I1
I10
I-3
I-3
I-1
I-2
I-1
tp701
a(I2
I11
I-8
I0
I0
I-1
I1
I1
tp702
a(I-2
I-1
I-9
I-3
I-2
I-2
I-1
I-3
tp703
a(I1
I-9
I13
I3
I2
I4
I4
I1
tp704
a(I-2
I2
I-1
I1
I1
I-1
I-1
I-1
tp705
a(I0
I-10
I-21
I-3
I-2
I0
I-1
I0
tp706
a(I-2
I0
I13
I1
I-2
I-2
I-3
I-2
tp707
a(I-1
I-1
I-10
I-3
I3
I2
I-2
I-2
tp708
a(I-3
I-1
I1
I0
I-1
I-2
I0
I0
tp709
a(I2
I0
I0
I-4
I-3
I-2
I-2
I-2
tp710
a(I0
I-2
I-17
I-2
I-2
I-2
I1
I1
tp711
a(I-1
I-2
I3
I-1
I0
I-2
I-1
I-1
tp712
a(I0
I0
I3
I2
I-1
I3
I-3
I-2
tp713
a(I-1
I5
I0
I0
I2
I-1
I-3
I-3
tp714
a(I0
I-7
I-6
I-3
I0
I-1
I-2
I-3
tp715
a(I-2
I2
I-13
I-3
I-3
I-2
I-3
I-2
tp716
a(I-1
I-3
I-2
I-2
I-3
I-1
I-1
I0
tp717
a(I0
I-2
I0
I-2
I-2
I-2
I-1
I-2
tp718
a(I-2
I3
I2
I-1
I1
I0
I-3
I-2
tp719
a(I-3
I-12
I-8
I-4
I-6
I0
I-1
I-2
tp720
a(I3
I4
I-4
I-1
I1
I-1
I-2
I-1
tp721
a(I0
I11
I2
I2
I-1
I1
I2
I0
tp722
a(I-3
I-2
I-14
I-2
I-1
I-1
I-1
I-3
tp723
a(I-3
I-5
I-20
I-4
I-2
I-1
I1
I-2
tp724
a(I2
I3
I6
I-1
I0
I0
I0
I-2
tp725
a(I-1
I0
I-6
I0
I1
I1
I1
I-1
tp726
a(I0
I-10
I-1
I-3
I-3
I-3
I-3
I-1
tp727
a(I-3
I-7
I0
I-2
I-2
I-3
I-2
I0
tp728
a(I-3
I-3
I5
I0
I0
I1
I0
I-1
tp729
a(I0
I5
I-1
I0
I-2
I-2
I0
I2
tp730
a(I-1
I-1
I-3
I-1
I-1
I-3
I-1
I0
tp731
a(I1
I1
I2
I1
I1
I1
I0
I0
tp732
a(I-1
I0
I0
I0
I2
I0
I0
I-1
tp733
a(I-2
I-2
I-11
I-3
I-6
I0
I1
I-2
tp734
a(I0
I1
I-5
I-2
I1
I0
I1
I0
tp735
a(I-1
I-1
I13
I-1
I-1
I-3
I-2
I-2
tp736
a(I0
I23
I2
I1
I-2
I0
I-1
I1
tp737
a(I2
I-11
I-5
I-1
I0
I-3
I-1
I-1
tp738
a(I-2
I-8
I-3
I-4
I-3
I-4
I-3
I-2
tp739
a(I0
I4
I4
I3
I1
I1
I1
I-1
tp740
a(I1
I-9
I-3
I-3
I-2
I0
I1
I-2
tp741
a(I-1
I5
I-6
I-1
I1
I-1
I0
I-2
tp742
a(I-1
I-8
I-11
I-3
I-1
I-2
I-2
I-1
tp743
a(I-1
I0
I-30
I-5
I0
I1
I0
I-1
tp744
a(I-1
I15
I23
I0
I-1
I-3
I-3
I-1
tp745
a(I3
I-17
I16
I4
I-1
I2
I0
I3
tp746
a(I-2
I3
I10
I1
I1
I-2
I0
I-2
tp747
a(I-4
I-6
I11
I0
I2
I1
I0
I-1
tp748
a(I2
I5
I-19
I-1
I1
I1
I-1
I0
tp749
a(I-8
I-24
I-4
I-8
I1
I-1
I-2
I-4
tp750
a(I-3
I-18
I-52
I-10
I-6
I1
I-2
I-1
tp751
a(I-2
I24
I75
I6
I-5
I-7
I-4
I-4
tp752
a(I7
I10
I-35
I0
I3
I4
I3
I5
tp753
a(I-3
I-6
I27
I-1
I1
I-3
I-2
I-1
tp754
a(I-6
I-22
I-34
I-13
I-5
I-4
I-3
I-4
tp755
a(I4
I-6
I-8
I-2
I1
I2
I1
I4
tp756
a(I5
I45
I-4
I-5
I0
I0
I1
I3
tp757
a(I-2
I-25
I6
I-2
I-1
I0
I-1
I-1
tp758
a(I4
I2
I-10
I6
I6
I2
I2
I0
tp759
a(I-2
I4
I65
I7
I2
I3
I-2
I-2
tp760
a(I1
I19
I-44
I-12
I-5
I-5
I-1
I1
tp761
a(I-4
I2
I-6
I-4
I-3
I-2
I1
I-3
tp762
a(I-4
I-16
I17
I-2
I-1
I-5
I-7
I0
tp763
a(I10
I18
I-6
I6
I3
I11
I16
I5
tp764
a(I-3
I-4
I-1
I-2
I6
I3
I0
I2
tp765
a(I-6
I-8
I-33
I-8
I-4
I-5
I1
I-4
tp766
a(I-6
I-10
I21
I8
I-6
I-6
I-22
I-9
tp767
a(I2
I1
I-48
I-4
I3
I0
I-3
I-1
tp768
a(I2
I6
I84
I12
I-1
I2
I11
I2
tp769
a(I-3
I-9
I-83
I-10
I-3
I-4
I-10
I0
tp770
a(I-3
I-24
I18
I1
I4
I6
I2
I-2
tp771
a(I-6
I-29
I-13
I-3
I-4
I-6
I-8
I-4
tp772
a(I-4
I-14
I34
I-2
I-1
I0
I-5
I-2
tp773
a(I-7
I-4
I-3
I-3
I-4
I-6
I0
I-5
tp774
a(I4
I24
I-1
I1
I2
I2
I4
I2
tp775
a(I3
I26
I32
I6
I-4
I-3
I-10
I0
tp776
a(I-1
I0
I-39
I-5
I2
I1
I2
I1
tp777
a(I7
I26
I121
I20
I4
I3
I1
I1
tp778
a(I-9
I-15
I-59
I-6
I-7
I-2
I-3
I-5
tp779
a(I-1
I-22
I-8
I-12
I-3
I-2
I-7
I-4
tp780
a(I-5
I-30
I19
I4
I-1
I-6
I-4
I-5
tp781
a(I11
I9
I53
I10
I13
I12
I5
I7
tp782
a(I1
I-2
I-88
I-11
I1
I1
I-1
I-1
tp783
a(I-4
I-4
I-101
I-20
I-8
I-3
I-2
I-2
tp784
a(I-3
I0
I41
I-19
I-6
I-3
I-2
I-3
tp785
a(I-9
I-47
I-80
I-7
I-18
I-7
I-3
I-5
tp786
a(I17
I-7
I17
I62
I26
I13
I6
I9
tp787
a(I-10
I-78
I-69
I-4
I-6
I-6
I-4
I-6
tp788
a(I-17
I-2
I-74
I27
I36
I10
I5
I0
tp789
a(I15
I19
I98
I9
I9
I13
I11
I12
tp790
a(I-7
I-24
I28
I-11
I-29
I-12
I-8
I-8
tp791
a(I-9
I-39
I43
I-29
I7
I-1
I-2
I-5
tp792
a(I-23
I-1
I98
I11
I-3
I-9
I-4
I-8
tp793
a(I-16
I-43
I-128
I-41
I-25
I-13
I-11
I-9
tp794
a(I14
I53
I-97
I-13
I24
I14
I10
I13
tp795
a(I1
I-30
I32
I68
I-19
I-8
I-4
I-4
tp796
a(I0
I22
I94
I45
I17
I-1
I-3
I-6
tp797
a(I-8
I-62
I-93
I15
I-28
I-15
I-6
I-4
tp798
a(I19
I55
I89
I-13
I-36
I-1
I0
I7
tp799
a(I-20
I-59
I-128
I-87
I23
I5
I-1
I-7
tp800
a(I-7
I-94
I126
I89
I-21
I-12
I-10
I-9
tp801
a(I-6
I52
I33
I-44
I4
I-8
I-7
I-8
tp802
a(I16
I-45
I-92
I19
I75
I34
I20
I19
tp803
a(I-31
I-31
I39
I110
I-52
I-32
I-21
I-21
tp804
a(I18
I60
I-77
I0
I30
I17
I12
I13
tp805
a(I-13
I-48
I-5
I109
I-41
I-25
I-18
I-14
tp806
a(I-12
I-83
I-112
I3
I-32
I-13
I-7
I-9
tp807
a(I0
I48
I-128
I-21
I36
I11
I4
I5
tp808
a(I-21
I-62
I127
I65
I12
I-6
I-8
I-11
tp809
a(I41
I68
I-16
I61
I-52
I-6
I0
I17
tp810
a(I-9
I-26
I-49
I-60
I2
I-1
I0
I-5
tp811
a(I-25
I-39
I-51
I127
I83
I11
I5
I-6
tp812
a(I47
I70
I127
I-61
I-70
I-13
I0
I14
tp813
a(I-25
I-66
I-15
I53
I-26
I-11
I-9
I-15
tp814
a(I6
I21
I97
I107
I56
I17
I12
I7
tp815
a(I-6
I-68
I84
I-37
I-76
I-22
I-11
I-7
tp816
a(I-76
I-120
I-128
I27
I34
I-9
I-14
I-28
tp817
a(I65
I106
I-8
I40
I53
I30
I23
I36
tp818
a(I-1
I57
I42
I2
I-88
I-27
I-12
I-5
tp819
a(I-29
I27
I-7
I-96
I42
I11
I0
I-15
tp820
a(I8
I72
I-85
I-95
I8
I11
I6
I3
tp821
a(I-27
I-95
I-125
I81
I14
I-3
I-9
I-10
tp822
a(I31
I33
I-1
I55
I13
I13
I10
I12
tp823
a(I12
I-55
I-29
I122
I16
I11
I8
I10
tp824
a(I-70
I-106
I-2
I-53
I-44
I-37
I-26
I-35
tp825
a(I-1
I-45
I-103
I-28
I14
I-2
I-9
I2
tp826
a(I17
I32
I64
I-55
I-10
I0
I1
I9
tp827
a(I-15
I-56
I-106
I-36
I20
I1
I-1
I-10
tp828
a(I33
I81
I29
I-92
I3
I3
I0
I11
tp829
a(I22
I80
I63
I53
I-16
I0
I4
I10
tp830
a(I47
I72
I-56
I48
I26
I20
I10
I16
tp831
a(I8
I112
I105
I127
I43
I7
I6
I-2
tp832
a(I6
I-6
I-120
I-50
I13
I9
I2
I1
tp833
a(I-30
I-39
I113
I87
I-9
I-15
I-12
I-15
tp834
a(I24
I-4
I-36
I97
I24
I12
I9
I14
tp835
a(I-10
I-38
I14
I-79
I-46
I-8
I-8
I-9
tp836
a(I-9
I-38
I62
I35
I-27
I-18
I-5
I-1
tp837
a(I38
I7
I-95
I-61
I36
I22
I16
I21
tp838
a(I-15
I-86
I54
I-63
I8
I3
I-4
I-12
tp839
a(I21
I75
I5
I127
I31
I4
I2
I8
tp840
a(I27
I92
I43
I10
I-81
I-35
I-5
I5
tp841
a(I-33
I-18
I-20
I6
I15
I-17
I-7
I-12
tp842
a(I9
I43
I117
I-11
I48
I2
I-6
I-8
tp843
a(I13
I74
I-57
I-7
I53
I25
I5
I-1
tp844
a(I-21
I-128
I28
I-53
I-17
I-4
I-3
I-6
tp845
a(I15
I39
I62
I52
I-22
I-10
I-1
I7
tp846
a(I-36
I-128
I39
I18
I-42
I-22
I-19
I-24
tp847
a(I34
I92
I-25
I34
I68
I21
I10
I14
tp848
a(I0
I-74
I41
I56
I32
I5
I-4
I-9
tp849
a(I-3
I-70
I106
I89
I-64
I-36
I-14
I-8
tp850
a(I-4
I-44
I68
I3
I19
I2
I6
I1
tp851
a(I34
I1
I-32
I9
I63
I23
I12
I18
tp852
a(I50
I127
I37
I-72
I-4
I-1
I7
I16
tp853
a(I-24
I-13
I-62
I4
I-73
I-25
I-13
I-15
tp854
a(I19
I1
I18
I45
I32
I9
I1
I2
tp855
a(I-14
I-38
I35
I-75
I-11
I-4
I-3
I-4
tp856
a(I2
I46
I-76
I-44
I-11
I-5
I-8
I-2
tp857
a(I-4
I-60
I126
I4
I-14
I-5
I-1
I-2
tp858
a(I12
I86
I21
I25
I25
I3
I-3
I-2
tp859
a(I1
I56
I23
I-96
I-16
I3
I0
I-2
tp860
a(I-43
I-112
I-35
I93
I-3
I-11
I-8
I-16
tp861
a(I-27
I-4
I2
I-112
I-46
I-26
I-13
I-13
tp862
a(I30
I60
I-12
I-119
I21
I10
I8
I16
tp863
a(I-21
I15
I-11
I36
I-78
I-32
I-11
I-8
tp864
a(I-28
I-56
I40
I-5
I-62
I-32
I-17
I-17
tp865
a(I-15
I-97
I-53
I5
I-1
I-4
I-4
I-7
tp866
a(I-10
I-74
I-72
I-5
I23
I13
I3
I1
tp867
a(I8
I14
I80
I50
I52
I7
I5
I3
tp868
a(I-1
I53
I-1
I35
I-14
I4
I-2
I-1
tp869
a(I-1
I-1
I-7
I-47
I-25
I-16
I-10
I-8
tp870
a(I32
I105
I96
I75
I41
I15
I7
I15
tp871
a(I8
I-28
I-88
I-19
I-18
I-4
I-2
I5
tp872
a(I-14
I-3
I-1
I-10
I-19
I-11
I-3
I-6
tp873
a(I-8
I-72
I15
I-1
I12
I2
I1
I-1
tp874
a(I-7
I-5
I-15
I24
I16
I-1
I-4
I-5
tp875
a(I-5
I-8
I24
I-57
I-23
I-9
I-5
I-2
tp876
a(I-3
I79
I22
I9
I-3
I4
I-2
I0
tp877
a(I21
I57
I16
I-1
I1
I-3
I1
I5
tp878
a(I-1
I-31
I-42
I4
I-2
I-3
I-2
I-2
tp879
a(I-24
I91
I14
I2
I-9
I1
I1
I-8
tp880
a(I3
I-33
I37
I9
I4
I-9
I-6
I1
tp881
a(I-11
I-61
I-36
I-36
I-11
I-7
I-1
I-15
tp882
a(I-13
I-17
I107
I15
I0
I-9
I-3
I-3
tp883
a(I-1
I19
I-38
I-11
I-6
I0
I-1
I0
tp884
a(I-11
I-3
I-15
I-1
I4
I2
I-2
I-5
tp885
a(I4
I35
I-7
I7
I-1
I7
I2
I4
tp886
a(I-10
I46
I-23
I2
I-3
I3
I5
I12
tp887
a(I-2
I-12
I-4
I-6
I-14
I-5
I-8
I11
tp888
a(I-19
I-31
I-3
I-10
I-15
I-23
I-15
I-39
tp889
a(I6
I68
I-35
I-2
I8
I-1
I8
I21
tp890
a(I-32
I-102
I-35
I-7
I1
I2
I-16
I-82
tp891
a(I48
I-9
I3
I12
I9
I3
I19
I95
tp892
a(I-21
I-23
I42
I-4
I-4
I-1
I-3
I-11
tp893
a(I7
I5
I22
I-1
I-8
I-6
I-2
I9
tp894
a(I7
I0
I-11
I-2
I2
I0
I5
I20
tp895
a(I-9
I3
I-17
I9
I13
I13
I-2
I-15
tp896
a(I-6
I-23
I6
I1
I-9
I-10
I-2
I-6
tp897
a(I10
I21
I21
I-2
I-1
I1
I-1
I-12
tp898
a(I-11
I-15
I3
I1
I3
I9
I4
I-32
tp899
a(I20
I18
I-27
I-2
I-1
I0
I-2
I17
tp900
a(I5
I1
I27
I10
I7
I2
I-2
I23
tp901
a(I-2
I-4
I-3
I-2
I-3
I9
I9
I-27
tp902
a(I1
I-20
I-19
I-7
I-10
I-6
I-2
I3
tp903
a(I2
I57
I-7
I4
I-1
I-2
I-7
I-12
tp904
a(I6
I-13
I5
I1
I1
I0
I-2
I-6
tp905
a(I-6
I-42
I-22
I0
I1
I-5
I2
I7
tp906
a(I7
I36
I33
I6
I5
I3
I6
I-2
tp907
a(I-3
I33
I3
I5
I0
I5
I3
I0
tp908
a(I1
I8
I-33
I-5
I-2
I-2
I-12
I-11
tp909
a(I-6
I-79
I1
I0
I-3
I2
I1
I-19
tp910
a(I0
I-17
I-21
I-8
I-7
I-2
I-8
I-14
tp911
a(I9
I1
I14
I7
I5
I0
I3
I38
tp912
a(I3
I9
I4
I-1
I0
I-5
I-13
I-7
tp913
a(I4
I61
I0
I8
I10
I10
I3
I14
tp914
a(I-2
I-1
I16
I2
I1
I-7
I-3
I3
tp915
a(I10
I-15
I-2
I-7
I-12
I-6
I3
I-6
tp916
a(I4
I-5
I-63
I-12
I-11
I0
I6
I8
tp917
a(I2
I52
I56
I12
I4
I2
I0
I9
tp918
a(I0
I14
I11
I-1
I-2
I-5
I-2
I0
tp919
a(I-4
I7
I-3
I2
I-3
I0
I0
I8
tp920
a(I3
I16
I13
I1
I-4
I-3
I-2
I-3
tp921
a(I-11
I-9
I-3
I-8
I-4
I-5
I-11
I-15
tp922
a(I4
I0
I-4
I-2
I4
I13
I-1
I-5
tp923
a(I-2
I-2
I6
I-2
I-6
I-2
I10
I-1
tp924
a(I-3
I-6
I-23
I-1
I4
I4
I-2
I-14
tp925
a(I1
I-1
I5
I2
I2
I-2
I-4
I-1
tp926
a(I-16
I-31
I1
I4
I2
I1
I3
I5
tp927
a(I-4
I3
I19
I-4
I-2
I2
I-2
I-2
tp928
a(I-10
I-7
I1
I-3
I0
I-2
I-4
I1
tp929
a(I2
I-13
I2
I3
I-2
I-6
I1
I6
tp930
a(I6
I6
I-17
I-11
I-6
I2
I-4
I2
tp931
a(I-7
I-4
I4
I-5
I-6
I-5
I-1
I0
tp932
a(I-5
I-13
I-3
I5
I7
I-4
I-2
I-2
tp933
a(I-10
I-13
I7
I-2
I-4
I10
I-3
I-7
tp934
a(I-4
I1
I44
I4
I-1
I-2
I-3
I-2
tp935
a(I8
I-2
I3
I5
I6
I2
I-5
I2
tp936
a(I-5
I-4
I-4
I-2
I-3
I-3
I-7
I-2
tp937
a(I0
I-8
I-33
I2
I5
I4
I13
I-2
tp938
a(I-1
I5
I47
I-2
I-2
I-10
I-4
I0
tp939
a(I0
I4
I-7
I0
I2
I5
I3
I-1
tp940
a(I0
I-6
I1
I0
I-1
I-6
I-5
I0
tp941
a(I3
I3
I6
I0
I-3
I-4
I-4
I2
tp942
a(I8
I-14
I6
I3
I-4
I-7
I-2
I1
tp943
a(I-4
I-10
I-6
I-9
I-2
I-12
I-6
I-3
tp944
a(I-4
I-2
I-15
I-4
I1
I5
I3
I-1
tp945
a(I2
I13
I37
I4
I-1
I2
I-4
I1
tp946
a(I-3
I7
I-21
I-1
I-2
I2
I-1
I1
tp947
a(I-1
I3
I2
I1
I0
I-3
I0
I-1
tp948
a(I-1
I-21
I-10
I-1
I-3
I-3
I0
I-1
tp949
a(I0
I-10
I-2
I-2
I1
I3
I-5
I-4
tp950
a(I-4
I-9
I-19
I-8
I-5
I4
I4
I0
tp951
a(I0
I4
I26
I1
I-1
I-4
I-3
I-1
tp952
a(I0
I0
I7
I-1
I-4
I-2
I2
I0
tp953
a(I1
I-1
I-2
I1
I4
I3
I-3
I-2
tp954
a(I5
I26
I31
I4
I4
I-3
I-1
I3
tp955
a(I-2
I-12
I-26
I-8
I-6
I-3
I-1
I-2
tp956
a(I-3
I-1
I10
I-1
I-1
I1
I-1
I0
tp957
a(I-4
I-9
I-7
I-3
I-2
I-1
I1
I-2
tp958
a(I-1
I-5
I-6
I-3
I-3
I-1
I-1
I-1
tp959
a(I-2
I-3
I-5
I-1
I0
I2
I2
I0
tp960
a(I0
I-3
I24
I4
I3
I0
I-2
I0
tp961
a(I-3
I-7
I5
I2
I3
I2
I0
I-1
tp962
a(I-1
I27
I-13
I-1
I-3
I-2
I0
I2
tp963
a(I-4
I39
I-5
I-3
I-3
I-2
I0
I-2
tp964
a(I3
I-34
I-15
I-6
I-1
I-5
I-5
I-4
tp965
a(I1
I-1
I-7
I-4
I-3
I-4
I0
I-2
tp966
a(I0
I1
I2
I0
I-2
I-3
I-1
I-1
tp967
a(I-2
I-4
I-16
I0
I-1
I-3
I2
I1
tp968
a(I-1
I-3
I-5
I-2
I0
I0
I-2
I0
tp969
a(I-2
I-8
I12
I2
I-1
I1
I0
I-1
tp970
a(I0
I15
I-6
I1
I5
I1
I0
I1
tp971
a(I-6
I-1
I14
I1
I1
I1
I-4
I-2
tp972
a(I-4
I-4
I-11
I-3
I-3
I-2
I-1
I-2
tp973
a(I-1
I2
I20
I2
I1
I4
I-2
I-2
tp974
a(I0
I5
I26
I0
I1
I0
I0
I-2
tp975
a(I0
I2
I17
I0
I-3
I-6
I-1
I1
tp976
a(I-1
I-4
I-8
I-9
I-8
I3
I-2
I-2
tp977
a(I-1
I-2
I-3
I1
I0
I-3
I-2
I-2
tp978
a(I0
I0
I-23
I-3
I0
I-2
I-1
I-1
tp979
a(I0
I8
I-1
I-3
I0
I1
I0
I0
tp980
a(I-2
I-21
I3
I-4
I-4
I-5
I-4
I-4
tp981
a(I-1
I-4
I-6
I-3
I-4
I0
I-2
I1
tp982
a(I-1
I7
I-11
I0
I-2
I0
I0
I0
tp983
a(I3
I-1
I21
I2
I2
I0
I0
I0
tp984
a(I-2
I5
I-7
I-4
I-6
I-4
I-3
I-1
tp985
a(I-1
I-6
I-19
I-2
I-1
I-2
I-2
I-3
tp986
a(I1
I1
I15
I3
I2
I2
I1
I2
tp987
a(I-3
I-7
I-16
I-7
I-5
I-3
I-2
I-2
tp988
a(I-1
I1
I29
I5
I4
I0
I2
I0
tp989
a(I-3
I-19
I-14
I-2
I-7
I1
I1
I-1
tp990
a(I-1
I-6
I-3
I-1
I-2
I-2
I0
I-2
tp991
a(I1
I7
I0
I2
I4
I4
I1
I-1
tp992
a(I-4
I-1
I-2
I-2
I-3
I-5
I-2
I0
tp993
a(I0
I1
I8
I-2
I-3
I-3
I-4
I0
tp994
a(I-3
I-1
I0
I-2
I-3
I-2
I-3
I-1
tp995
a(I2
I-2
I2
I1
I2
I0
I-1
I0
tp996
a(I-1
I0
I3
I3
I4
I2
I2
I0
tp997
a(I-2
I-3
I-2
I0
I-3
I-6
I-2
I-1
tp998
a(I0
I-3
I-2
I0
I2
I2
I0
I-2
tp999
a(I-1
I1
I3
I3
I1
I-1
I0
I-1
tp1000
a(I-3
I-17
I-1
I-1
I-1
I-2
I-2
I0
tp1001
a(I-6
I-3
I-7
I0
I1
I3
I-2
I-1
tp1002
a(I0
I3
I18
I2
I-1
I-3
I-4
I-1
tp1003
a(I-3
I-10
I-9
I-3
I-1
I0
I-2
I-1
tp1004
a(I1
I7
I-17
I-4
I-1
I-3
I-2
I1
tp1005
a(I-3
I-4
I1
I-2
I-3
I-2
I0
I-2
tp1006
a(I0
I3
I-7
I0
I-2
I-1
I-1
I-2
tp1007
a(I-1
I-7
I-16
I-3
I-1
I0
I0
I0
tp1008
a(I0
I0
I13
I2
I1
I1
I-2
I1
tp1009
a(I1
I-2
I6
I-1
I-4
I1
I-1
I-1
tp1010
a(I0
I-2
I2
I0
I-1
I-2
I0
I0
tp1011
a(I0
I0
I-6
I-1
I-3
I1
I-1
I-1
tp1012
a(I-2
I-1
I-9
I-1
I0
I0
I0
I-1
tp1013
a(I0
I5
I-8
I-2
I-1
I-1
I-1
I-2
tp1014
a(I-1
I1
I3
I0
I2
I1
I-2
I-2
tp1015
a(I-2
I-5
I-15
I-5
I-5
I-3
I-1
I2
tp1016
a(I-2
I-3
I-9
I-7
I-5
I-3
I-2
I-2
tp1017
a(I-3
I-1
I-3
I-2
I-1
I-1
I0
I-1
tp1018
a(I2
I8
I14
I0
I-1
I-1
I0
I-1
tp1019
a(I-1
I-1
I13
I4
I0
I-1
I0
I-3
tp1020
a(I-1
I0
I2
I-2
I1
I1
I-1
I-2
tp1021
a(I-2
I1
I7
I-3
I-5
I-4
I-2
I0
tp1022
a(I2
I5
I0
I-1
I9
I2
I0
I1
tp1023
a(I-2
I0
I-8
I-2
I-3
I0
I-1
I-1
tp1024
a(I0
I-4
I2
I-5
I-9
I-6
I-3
I-2
tp1025
a(I-2
I-3
I-2
I1
I1
I1
I2
I-1
tp1026
a(I-1
I0
I-8
I-3
I-1
I-2
I1
I-2
tp1027
a(I-1
I0
I-1
I-4
I0
I-2
I-2
I-2
tp1028
a(I-2
I-1
I4
I3
I0
I-3
I0
I-1
tp1029
a(I1
I-1
I-5
I-3
I-2
I2
I1
I-1
tp1030
a(I2
I-8
I-13
I1
I-1
I0
I-1
I2
tp1031
a(I-1
I-1
I16
I1
I-3
I0
I-1
I-2
tp1032
a(I-1
I-4
I-30
I-5
I0
I2
I0
I1
tp1033
a(I-3
I4
I33
I3
I0
I-4
I-2
I0
tp1034
a(I1
I5
I-1
I1
I0
I0
I-1
I-1
tp1035
a(I-1
I-4
I-10
I-6
I-6
I-3
I-2
I-1
tp1036
a(I0
I-2
I0
I-3
I-1
I-3
I-3
I-4
tp1037
a(I-2
I-2
I9
I3
I2
I1
I-2
I0
tp1038
a(I1
I3
I13
I1
I1
I1
I2
I1
tp1039
a(I-1
I-2
I-3
I0
I1
I2
I0
I0
tp1040
a(I0
I-4
I0
I1
I0
I-2
I0
I-1
tp1041
a(I-2
I-1
I-10
I-2
I2
I1
I1
I0
tp1042
a(I-3
I-6
I1
I-3
I-8
I-5
I-4
I-2
tp1043
a(I-1
I-3
I-21
I-7
I-7
I-4
I-5
I-2
tp1044
a(I0
I0
I17
I1
I0
I1
I1
I1
tp1045
a(I-2
I1
I-20
I-2
I0
I0
I0
I-1
tp1046
a(I-3
I-2
I3
I0
I2
I-3
I1
I-1
tp1047
a(I-3
I0
I5
I0
I-7
I-2
I-2
I-1
tp1048
a(I1
I-2
I-14
I-1
I-3
I-1
I0
I1
tp1049
a(I0
I1
I22
I3
I3
I4
I0
I0
tp1050
a(I-3
I-7
I-11
I-3
I-1
I-2
I-1
I-1
tp1051
a(I-2
I1
I-4
I-4
I-3
I-4
I-1
I-2
tp1052
a(I-3
I-2
I-3
I0
I2
I1
I0
I-1
tp1053
a(I-3
I-1
I2
I3
I0
I-3
I0
I0
tp1054
a(I1
I1
I-1
I3
I3
I1
I1
I-1
tp1055
a(I-2
I-2
I-2
I0
I0
I-3
I-1
I-2
tp1056
a(I-3
I-1
I-6
I-4
I-4
I-3
I-1
I-3
tp1057
a(I-1
I2
I9
I1
I1
I1
I0
I-1
tp1058
a(I-2
I-2
I-3
I2
I2
I-1
I-2
I-1
tp1059
a(I-2
I-1
I8
I-4
I-2
I-3
I-3
I0
tp1060
a(I-1
I0
I5
I-2
I-5
I-2
I-2
I0
tp1061
a(I-1
I-1
I-3
I-3
I-3
I-2
I-1
I-2
tp1062
a(I0
I1
I-5
I-3
I0
I2
I0
I0
tp1063
a(I1
I-2
I-2
I4
I-1
I-1
I0
I-2
tp1064
a(I-3
I-1
I15
I-1
I-2
I0
I-1
I-2
tp1065
a(I-2
I-1
I-3
I-2
I-3
I-1
I-2
I-2
tp1066
a(I0
I-2
I-3
I-1
I0
I-1
I0
I-1
tp1067
a(I0
I2
I-3
I1
I0
I0
I2
I1
tp1068
a(I1
I0
I-11
I1
I2
I-1
I2
I1
tp1069
a(I-1
I5
I33
I2
I1
I3
I-1
I0
tp1070
a(I-4
I-5
I-6
I-6
I-3
I-1
I-3
I-2
tp1071
a(I2
I0
I-6
I2
I4
I0
I-2
I0
tp1072
a(I0
I-1
I1
I-1
I0
I-1
I-3
I0
tp1073
a(I-2
I-1
I3
I-1
I2
I1
I-1
I-1
tp1074
a(I-3
I0
I-2
I-4
I-6
I-3
I0
I-2
tp1075
a(I0
I-2
I-2
I-1
I-2
I-1
I-1
I-1
tp1076
a(I-5
I1
I-4
I-1
I0
I-2
I0
I0
tp1077
a(I0
I1
I-6
I1
I-2
I-3
I-2
I0
tp1078
a(I-2
I-6
I-25
I-3
I-1
I-1
I-1
I-2
tp1079
a(I-2
I0
I18
I0
I-4
I-2
I1
I-1
tp1080
a(I0
I0
I6
I1
I1
I5
I0
I1
tp1081
a(I-3
I-6
I-16
I-2
I1
I-2
I-1
I-4
tp1082
a(I1
I4
I29
I3
I-2
I-1
I-2
I0
tp1083
a(I-1
I-2
I-14
I0
I0
I-1
I-1
I0
tp1084
a(I-1
I-1
I-11
I-2
I-1
I-1
I1
I-1
tp1085
a(I-3
I-5
I-5
I-1
I-3
I-2
I-2
I0
tp1086
a(I3
I6
I22
I4
I3
I3
I0
I0
tp1087
a(I-2
I-8
I-2
I0
I-3
I-3
I-1
I-2
tp1088
a(I-2
I-1
I-10
I-2
I-4
I-3
I-2
I-3
tp1089
a(I-1
I-2
I-12
I-2
I-2
I-2
I2
I-1
tp1090
a(I0
I-3
I-16
I-3
I-1
I-1
I-2
I-1
tp1091
a(I1
I7
I34
I3
I1
I2
I2
I0
tp1092
a(I0
I-3
I-6
I-5
I-1
I-3
I-2
I-1
tp1093
a(I-2
I-4
I-28
I-3
I-1
I-2
I-1
I-3
tp1094
a(I-4
I-2
I-25
I-3
I-2
I-2
I-3
I-2
tp1095
a(I-1
I0
I6
I-4
I-1
I2
I-1
I0
tp1096
a(I1
I-3
I-22
I-1
I-2
I0
I0
I-2
tp1097
a(I-1
I3
I5
I-3
I-2
I-1
I0
I1
tp1098
a(I1
I-1
I-5
I2
I1
I0
I-1
I0
tp1099
a(I-1
I-4
I-2
I3
I2
I4
I-1
I-1
tp1100
aasS'wave-up'
p1101
(lp1102
(lp1103
(I0
I0
I-9
I-3
I-1
I1
I-1
I-1
tp1104
a(I2
I4
I8
I-1
I0
I-5
I-2
I0
tp1105
a(I-2
I-2
I-8
I4
I3
I1
I0
I-1
tp1106
a(I-2
I0
I-6
I-5
I-3
I-4
I0
I-2
tp1107
a(I-3
I-2
I2
I-4
I1
I-4
I-1
I-2
tp1108
a(I-1
I6
I9
I5
I-2
I4
I1
I-1
tp1109
a(I-1
I-10
I-23
I-6
I-3
I-4
I-2
I-1
tp1110
a(I-1
I2
I11
I4
I-1
I-4
I-2
I-2
tp1111
a(I0
I3
I11
I1
I2
I-2
I-2
I1
tp1112
a(I-1
I-3
I-8
I-3
I-4
I-3
I-3
I-2
tp1113
a(I0
I2
I0
I-1
I1
I-4
I0
I0
tp1114
a(I-2
I-15
I-14
I-9
I-8
I-5
I-2
I-1
tp1115
a(I0
I-4
I8
I-1
I-4
I1
I-1
I-3
tp1116
a(I0
I0
I-13
I-2
I0
I0
I-2
I-2
tp1117
a(I-2
I0
I14
I0
I-2
I-6
I-2
I-4
tp1118
a(I-1
I-5
I5
I0
I0
I2
I0
I-1
tp1119
a(I1
I6
I17
I0
I-5
I-6
I-2
I2
tp1120
a(I-3
I2
I-7
I-3
I-2
I-4
I-3
I-2
tp1121
a(I0
I5
I3
I-1
I5
I2
I2
I2
tp1122
a(I-2
I-13
I-15
I-2
I-1
I3
I-1
I-2
tp1123
a(I-1
I1
I-5
I-3
I2
I0
I-3
I-2
tp1124
a(I1
I4
I-6
I0
I-2
I-6
I-3
I1
tp1125
a(I-1
I3
I-5
I-4
I-1
I2
I0
I1
tp1126
a(I-2
I-3
I14
I3
I3
I1
I0
I0
tp1127
a(I2
I5
I-14
I-3
I1
I0
I0
I-1
tp1128
a(I0
I0
I5
I-1
I-6
I0
I-2
I0
tp1129
a(I0
I-3
I-15
I-2
I3
I5
I-1
I0
tp1130
a(I0
I-2
I11
I0
I-1
I-1
I0
I1
tp1131
a(I-1
I1
I1
I5
I1
I0
I-1
I-3
tp1132
a(I-1
I-2
I-4
I-3
I1
I2
I0
I0
tp1133
a(I-2
I-1
I6
I-1
I-4
I-9
I-4
I-5
tp1134
a(I1
I2
I-8
I-1
I-1
I-5
I-3
I0
tp1135
a(I-2
I-7
I-4
I-4
I-3
I7
I-1
I0
tp1136
a(I2
I8
I16
I4
I3
I-2
I0
I0
tp1137
a(I0
I-3
I-2
I2
I2
I1
I1
I-1
tp1138
a(I-1
I-2
I-18
I-2
I-1
I0
I0
I-2
tp1139
a(I0
I-4
I4
I-1
I-3
I-5
I-2
I-2
tp1140
a(I-3
I-7
I-4
I-5
I-2
I2
I-2
I-4
tp1141
a(I-4
I-4
I-12
I-4
I-5
I-4
I-4
I-1
tp1142
a(I0
I-2
I-4
I0
I0
I-2
I-2
I0
tp1143
a(I-1
I-2
I-3
I0
I0
I-1
I-1
I0
tp1144
a(I0
I7
I4
I-2
I1
I0
I2
I0
tp1145
a(I-2
I-6
I4
I0
I2
I1
I1
I-1
tp1146
a(I-4
I-11
I-6
I-3
I-4
I-8
I-5
I-2
tp1147
a(I-1
I-7
I5
I-2
I-3
I0
I-2
I-3
tp1148
a(I2
I10
I33
I5
I2
I0
I-1
I1
tp1149
a(I-1
I1
I-3
I3
I4
I0
I-3
I0
tp1150
a(I-2
I2
I-12
I-2
I-3
I0
I-1
I0
tp1151
a(I-1
I-4
I1
I-5
I-2
I1
I-1
I0
tp1152
a(I-1
I-2
I-15
I-2
I-2
I-1
I0
I0
tp1153
a(I1
I1
I9
I1
I0
I-3
I-2
I-2
tp1154
a(I0
I3
I0
I1
I2
I0
I-1
I-1
tp1155
a(I-1
I-3
I-7
I-2
I-1
I1
I0
I-2
tp1156
a(I-2
I-5
I3
I-1
I-1
I-1
I-1
I-1
tp1157
a(I-2
I-1
I2
I4
I5
I6
I0
I-1
tp1158
a(I-1
I2
I-15
I-1
I-7
I-7
I-4
I0
tp1159
a(I-3
I-7
I-17
I-5
I-4
I-2
I-2
I-3
tp1160
a(I2
I11
I57
I9
I-1
I-3
I1
I-1
tp1161
a(I1
I7
I2
I1
I4
I1
I-1
I0
tp1162
a(I0
I-5
I1
I-1
I-3
I-5
I-2
I0
tp1163
a(I-2
I-6
I11
I0
I-2
I-5
I-3
I-2
tp1164
a(I0
I9
I-2
I2
I-2
I-1
I0
I-2
tp1165
a(I-3
I-10
I3
I5
I1
I-1
I-1
I-3
tp1166
a(I-2
I-9
I-5
I-6
I-2
I-2
I0
I-1
tp1167
a(I0
I19
I-10
I-2
I-3
I-5
I-1
I1
tp1168
a(I2
I0
I6
I-3
I-1
I4
I0
I1
tp1169
a(I-1
I-4
I-7
I-5
I1
I-2
I0
I-1
tp1170
a(I-1
I5
I5
I3
I1
I-1
I0
I-1
tp1171
a(I-1
I-6
I-1
I1
I1
I2
I-1
I-1
tp1172
a(I-4
I-6
I-1
I-5
I-5
I-10
I-2
I-2
tp1173
a(I1
I9
I0
I-5
I-5
I0
I-2
I-1
tp1174
a(I-1
I-6
I8
I1
I-3
I-4
I-3
I0
tp1175
a(I0
I13
I-5
I0
I-3
I-1
I-2
I-1
tp1176
a(I-2
I-9
I-3
I0
I2
I1
I-3
I-2
tp1177
a(I-2
I-4
I-4
I-4
I-3
I-4
I-1
I-2
tp1178
a(I-1
I19
I-7
I-1
I0
I-1
I0
I0
tp1179
a(I-3
I-13
I5
I-4
I0
I0
I0
I-1
tp1180
a(I-2
I-7
I-11
I-1
I-3
I1
I-1
I-2
tp1181
a(I-7
I-10
I4
I1
I1
I-1
I0
I-1
tp1182
a(I-9
I8
I-9
I-3
I-1
I1
I0
I-1
tp1183
a(I1
I-18
I-29
I-6
I-1
I-3
I-2
I1
tp1184
a(I1
I-4
I-1
I-1
I1
I-6
I-2
I-1
tp1185
a(I3
I12
I14
I3
I-3
I-5
I-1
I-1
tp1186
a(I-6
I11
I0
I-1
I-4
I-1
I0
I-1
tp1187
a(I-2
I-70
I-37
I-3
I2
I1
I-4
I-2
tp1188
a(I6
I52
I38
I-6
I0
I-15
I-4
I-1
tp1189
a(I-1
I25
I-18
I2
I-2
I5
I0
I-2
tp1190
a(I0
I6
I-46
I-7
I-7
I-3
I1
I1
tp1191
a(I5
I9
I60
I7
I2
I3
I2
I2
tp1192
a(I-4
I-51
I-69
I-11
I0
I-6
I-4
I-2
tp1193
a(I11
I-15
I-58
I2
I-8
I-8
I-5
I-3
tp1194
a(I2
I16
I79
I-1
I3
I6
I0
I2
tp1195
a(I1
I-17
I-21
I3
I-2
I1
I0
I1
tp1196
a(I-4
I-51
I-49
I3
I3
I1
I1
I0
tp1197
a(I0
I81
I60
I12
I9
I-1
I4
I4
tp1198
a(I2
I-16
I10
I31
I-4
I3
I0
I1
tp1199
a(I-2
I-27
I-29
I-12
I-1
I-3
I-1
I-3
tp1200
a(I-7
I5
I21
I-3
I3
I3
I-2
I-2
tp1201
a(I-4
I-78
I-6
I4
I-1
I0
I-3
I-5
tp1202
a(I9
I81
I15
I-18
I0
I-6
I1
I1
tp1203
a(I2
I54
I41
I25
I-2
I0
I1
I1
tp1204
a(I-7
I-27
I-7
I11
I-7
I-11
I-4
I-2
tp1205
a(I7
I20
I-17
I-23
I-2
I0
I-1
I0
tp1206
a(I-1
I-3
I-13
I16
I1
I1
I1
I0
tp1207
a(I-4
I-48
I-23
I-14
I1
I0
I-2
I0
tp1208
a(I2
I38
I-3
I-4
I-2
I-6
I-2
I-4
tp1209
a(I4
I55
I112
I17
I-8
I-2
I-2
I-3
tp1210
a(I-1
I-14
I-42
I-7
I15
I9
I-1
I-1
tp1211
a(I-3
I-17
I-21
I7
I5
I2
I1
I-1
tp1212
a(I1
I23
I22
I19
I-5
I7
I4
I1
tp1213
a(I14
I-22
I-38
I-30
I14
I6
I3
I6
tp1214
a(I-15
I-30
I7
I-34
I-26
I-2
I-16
I-24
tp1215
a(I-10
I-44
I4
I27
I35
I-3
I3
I-3
tp1216
a(I14
I12
I9
I-23
I-45
I-12
I-7
I8
tp1217
a(I-16
I-19
I17
I-29
I-17
I-7
I-8
I-9
tp1218
a(I34
I20
I-43
I65
I34
I18
I17
I22
tp1219
a(I-5
I24
I-86
I-35
I-10
I-2
I-2
I-2
tp1220
a(I-20
I-85
I90
I-6
I4
I-5
I-4
I-10
tp1221
a(I16
I59
I-72
I16
I-25
I-9
I-1
I4
tp1222
a(I-15
I-107
I-6
I-27
I7
I-1
I-5
I-7
tp1223
a(I4
I-24
I35
I26
I9
I8
I4
I2
tp1224
a(I-8
I-33
I-25
I-6
I-19
I-7
I-1
I-1
tp1225
a(I-27
I-2
I64
I-60
I-60
I-29
I-20
I-17
tp1226
a(I19
I69
I61
I105
I-37
I-17
I-2
I12
tp1227
a(I16
I6
I-77
I-42
I14
I14
I12
I9
tp1228
a(I-12
I57
I46
I-12
I-8
I1
I-6
I-9
tp1229
a(I14
I-68
I27
I11
I12
I-1
I3
I5
tp1230
a(I-22
I8
I-3
I56
I35
I10
I-1
I-9
tp1231
a(I-8
I3
I2
I36
I-8
I-5
I-3
I-6
tp1232
a(I-17
I-92
I-35
I3
I-59
I-29
I-15
I-10
tp1233
a(I-29
I-22
I45
I-6
I-91
I-65
I-39
I-35
tp1234
a(I13
I-49
I-14
I-43
I84
I26
I15
I12
tp1235
a(I-28
I16
I127
I-103
I-31
I-28
I-19
I-19
tp1236
a(I51
I110
I-73
I55
I-7
I13
I14
I23
tp1237
a(I2
I58
I-21
I-106
I64
I31
I13
I3
tp1238
a(I-4
I-43
I-10
I88
I-64
I-25
I-12
I-7
tp1239
a(I-3
I0
I-70
I-78
I-18
I2
I1
I-4
tp1240
a(I-17
I-42
I72
I114
I-28
I-22
I-11
I-10
tp1241
a(I8
I-84
I1
I-58
I8
I12
I5
I6
tp1242
a(I-16
I-64
I-23
I-38
I28
I10
I3
I-5
tp1243
a(I-3
I1
I-120
I18
I-30
I-26
I-10
I-3
tp1244
a(I-11
I-52
I71
I-54
I-83
I-24
I-15
I-12
tp1245
a(I2
I-32
I-68
I-27
I53
I14
I2
I5
tp1246
a(I31
I-40
I6
I-15
I-2
I16
I12
I17
tp1247
a(I-31
I-26
I-42
I64
I46
I12
I3
I-7
tp1248
a(I42
I118
I70
I-97
I35
I18
I15
I20
tp1249
a(I80
I61
I4
I51
I2
I22
I30
I45
tp1250
a(I-34
I-38
I-111
I56
I1
I-14
I-11
I-19
tp1251
a(I-6
I25
I-107
I-125
I-7
I6
I2
I1
tp1252
a(I14
I-33
I39
I92
I-71
I-17
I-1
I8
tp1253
a(I-38
I-101
I-11
I-30
I-23
I-13
I-17
I-23
tp1254
a(I0
I-80
I-60
I24
I13
I-6
I2
I2
tp1255
a(I31
I94
I-29
I-6
I-27
I11
I12
I25
tp1256
a(I-21
I-54
I56
I5
I68
I9
I-3
I-8
tp1257
a(I-5
I-42
I64
I-23
I24
I-12
I-3
I-4
tp1258
a(I25
I99
I74
I110
I-46
I-2
I1
I7
tp1259
a(I-31
I-66
I-52
I79
I41
I0
I-6
I-17
tp1260
a(I-13
I-32
I-37
I82
I5
I-26
I0
I0
tp1261
a(I32
I40
I-117
I-59
I-55
I33
I12
I22
tp1262
a(I-30
I-93
I-6
I-5
I20
I4
I0
I-8
tp1263
a(I6
I-30
I17
I-17
I63
I10
I3
I2
tp1264
a(I-8
I-128
I-100
I-31
I32
I9
I0
I-1
tp1265
a(I17
I57
I81
I95
I-69
I-10
I-7
I2
tp1266
a(I-4
I-62
I-92
I-66
I17
I2
I-7
I-12
tp1267
a(I8
I-56
I-71
I-26
I-31
I-16
I3
I6
tp1268
a(I-25
I-13
I100
I53
I20
I-14
I-11
I-18
tp1269
a(I-15
I-128
I-38
I117
I106
I61
I11
I-5
tp1270
a(I9
I-24
I9
I69
I-74
I-2
I-2
I3
tp1271
a(I3
I103
I62
I-128
I-38
I-29
I-10
I-8
tp1272
a(I-8
I7
I-92
I-36
I-32
I-6
I-4
I1
tp1273
a(I-17
I-35
I32
I-10
I-49
I-7
I-10
I-9
tp1274
a(I0
I1
I-8
I-76
I-14
I8
I0
I-1
tp1275
a(I-27
I-58
I-59
I28
I10
I-47
I-5
I-11
tp1276
a(I-21
I-128
I25
I-55
I-41
I-38
I-13
I-14
tp1277
a(I24
I11
I-35
I25
I-17
I3
I4
I14
tp1278
a(I-14
I-110
I-51
I-81
I-1
I6
I-2
I-2
tp1279
a(I-22
I-73
I-29
I38
I-43
I-7
I-7
I-9
tp1280
a(I22
I111
I57
I-98
I-30
I1
I-2
I4
tp1281
a(I-25
I-78
I-9
I-99
I3
I20
I-5
I-11
tp1282
a(I16
I59
I-128
I54
I-4
I8
I5
I10
tp1283
a(I23
I101
I-17
I24
I1
I-6
I6
I11
tp1284
a(I19
I-58
I-79
I49
I66
I22
I7
I10
tp1285
a(I10
I39
I29
I-118
I-72
I-35
I-12
I-2
tp1286
a(I-34
I-76
I67
I63
I-8
I-10
I-5
I-11
tp1287
a(I4
I6
I-33
I-63
I3
I17
I8
I4
tp1288
a(I-16
I5
I32
I-12
I21
I-8
I-4
I-9
tp1289
a(I2
I-1
I66
I19
I-29
I-9
I-14
I-13
tp1290
a(I-6
I35
I-56
I-8
I13
I-2
I2
I4
tp1291
a(I-17
I-46
I-42
I50
I-12
I-1
I-3
I-8
tp1292
a(I-2
I16
I-104
I-38
I48
I33
I-1
I-1
tp1293
a(I8
I36
I-38
I-24
I-19
I-21
I-6
I-1
tp1294
a(I-17
I-30
I3
I10
I1
I-28
I1
I-1
tp1295
a(I11
I26
I16
I-80
I21
I-12
I3
I5
tp1296
a(I4
I-33
I33
I64
I33
I24
I8
I7
tp1297
a(I5
I-10
I48
I-50
I-13
I5
I7
I5
tp1298
a(I22
I34
I-11
I22
I1
I12
I-1
I4
tp1299
a(I-5
I22
I-14
I70
I-4
I-21
I-4
I-7
tp1300
a(I-20
I-104
I-57
I-7
I-20
I-2
I-8
I-8
tp1301
a(I55
I49
I91
I23
I6
I14
I16
I23
tp1302
a(I-2
I-78
I-27
I55
I36
I16
I-3
I-2
tp1303
a(I-15
I26
I59
I9
I-11
I-11
I-3
I-5
tp1304
a(I5
I4
I2
I21
I1
I-3
I-1
I2
tp1305
a(I2
I-10
I-18
I4
I7
I11
I6
I1
tp1306
a(I-5
I3
I23
I-27
I12
I-14
I0
I-2
tp1307
a(I-11
I4
I-26
I0
I-7
I4
I-4
I-3
tp1308
a(I-15
I18
I-60
I-53
I-17
I-13
I-5
I-9
tp1309
a(I-2
I-6
I50
I25
I18
I10
I5
I4
tp1310
a(I-5
I-15
I73
I5
I-6
I-14
I-4
I-3
tp1311
a(I0
I-2
I-65
I3
I17
I-3
I2
I3
tp1312
a(I4
I57
I24
I-3
I-24
I9
I0
I1
tp1313
a(I-7
I27
I8
I4
I13
I1
I0
I-2
tp1314
a(I5
I32
I-24
I-17
I-9
I-6
I-2
I0
tp1315
a(I-2
I3
I40
I-3
I-8
I9
I-4
I-3
tp1316
a(I1
I-21
I-10
I-10
I0
I6
I0
I-1
tp1317
a(I-6
I-8
I25
I6
I-5
I7
I2
I-2
tp1318
a(I3
I81
I21
I14
I19
I-3
I2
I1
tp1319
a(I-6
I-18
I3
I-15
I-19
I-2
I-2
I-3
tp1320
a(I21
I10
I-35
I-1
I1
I8
I4
I7
tp1321
a(I-4
I-15
I-48
I-15
I-31
I2
I-4
I-13
tp1322
a(I2
I-7
I13
I-17
I-23
I-16
I-6
I3
tp1323
a(I14
I74
I-16
I0
I8
I6
I3
I9
tp1324
a(I4
I5
I7
I6
I-2
I-7
I-4
I-8
tp1325
a(I-2
I-2
I3
I5
I16
I2
I1
I28
tp1326
a(I-6
I1
I-2
I-3
I-3
I3
I1
I-9
tp1327
a(I0
I31
I13
I5
I3
I5
I15
I11
tp1328
a(I-2
I-10
I-1
I-6
I-4
I-7
I-8
I11
tp1329
a(I-16
I-14
I-3
I2
I8
I10
I-11
I-26
tp1330
a(I13
I4
I-6
I-3
I-5
I-1
I-6
I-12
tp1331
a(I5
I4
I11
I4
I1
I-8
I-11
I-11
tp1332
a(I0
I-7
I-1
I-7
I-2
I5
I2
I31
tp1333
a(I10
I-28
I-20
I-7
I-1
I-3
I4
I-8
tp1334
a(I-17
I1
I33
I8
I-3
I-1
I-2
I-4
tp1335
a(I-6
I-17
I14
I5
I10
I7
I5
I11
tp1336
a(I8
I17
I8
I0
I-1
I2
I0
I-19
tp1337
a(I0
I-5
I0
I1
I1
I-1
I-4
I6
tp1338
a(I-4
I-6
I-6
I0
I3
I4
I-7
I-1
tp1339
a(I-2
I-37
I-19
I-19
I-6
I-5
I0
I4
tp1340
a(I9
I37
I-3
I38
I11
I-2
I6
I-11
tp1341
a(I-8
I-11
I-1
I-11
I-5
I-6
I-6
I-16
tp1342
a(I4
I-1
I3
I8
I-2
I-1
I-5
I4
tp1343
a(I-8
I-84
I-20
I-1
I-2
I-10
I-1
I-3
tp1344
a(I-15
I15
I-3
I-11
I-7
I3
I-6
I-14
tp1345
a(I5
I23
I6
I2
I-3
I-4
I-4
I-3
tp1346
a(I-14
I-6
I-10
I-8
I-8
I4
I9
I-3
tp1347
a(I3
I18
I-13
I-7
I-3
I1
I-2
I-3
tp1348
a(I3
I-6
I7
I2
I2
I2
I-3
I-1
tp1349
a(I3
I24
I11
I10
I12
I0
I3
I7
tp1350
a(I-2
I7
I-17
I-6
I-5
I-4
I-4
I-1
tp1351
a(I3
I2
I18
I-11
I-25
I-18
I-5
I-2
tp1352
a(I-5
I-13
I-3
I-11
I-6
I1
I-2
I-11
tp1353
a(I1
I7
I-13
I-8
I-4
I5
I5
I4
tp1354
a(I1
I-8
I9
I-2
I0
I-5
I-5
I15
tp1355
a(I-6
I-9
I7
I2
I-2
I0
I-5
I-8
tp1356
a(I0
I5
I-6
I0
I-1
I5
I2
I0
tp1357
a(I4
I9
I2
I-4
I-3
I-6
I0
I4
tp1358
a(I-11
I-9
I-4
I-3
I-4
I-3
I-9
I-18
tp1359
a(I2
I2
I5
I-2
I-2
I-8
I-3
I-4
tp1360
a(I-6
I2
I5
I0
I3
I-8
I-10
I1
tp1361
a(I-1
I-3
I-23
I-9
I-1
I7
I2
I0
tp1362
a(I2
I1
I65
I17
I0
I2
I-14
I6
tp1363
a(I-3
I8
I-8
I-9
I0
I8
I15
I-6
tp1364
a(I4
I-4
I-14
I-4
I-2
I-2
I0
I3
tp1365
a(I6
I0
I-22
I-5
I1
I3
I0
I1
tp1366
a(I-8
I-2
I33
I3
I1
I-3
I-2
I-3
tp1367
a(I-1
I2
I-3
I-9
I-6
I-2
I-6
I-1
tp1368
a(I0
I-6
I5
I-4
I-2
I-5
I-4
I-3
tp1369
a(I4
I10
I6
I2
I2
I-3
I11
I-1
tp1370
a(I0
I9
I-7
I-2
I2
I4
I1
I-2
tp1371
a(I1
I-3
I2
I3
I2
I0
I1
I0
tp1372
a(I-4
I-1
I1
I-6
I-2
I0
I0
I-2
tp1373
a(I1
I8
I-3
I3
I-1
I-3
I-6
I-2
tp1374
a(I0
I5
I-6
I1
I-3
I-4
I-1
I0
tp1375
a(I-4
I30
I12
I-1
I1
I-4
I1
I2
tp1376
a(I-1
I17
I15
I5
I-1
I2
I6
I1
tp1377
a(I4
I-10
I20
I5
I2
I4
I2
I2
tp1378
a(I-1
I-9
I-10
I-1
I0
I2
I0
I-2
tp1379
a(I0
I-1
I6
I2
I3
I-2
I0
I-2
tp1380
a(I-11
I4
I-10
I-4
I-2
I0
I1
I-2
tp1381
a(I-5
I-12
I-1
I0
I1
I0
I-2
I-2
tp1382
a(I-3
I10
I2
I1
I2
I5
I5
I4
tp1383
a(I-3
I-6
I-17
I-3
I1
I1
I-4
I-3
tp1384
a(I0
I2
I-1
I-5
I-5
I-4
I-4
I-1
tp1385
a(I0
I-10
I-16
I-3
I-1
I-5
I-1
I-1
tp1386
a(I-3
I-13
I-37
I-6
I0
I2
I1
I-1
tp1387
a(I-2
I13
I38
I0
I0
I3
I-2
I1
tp1388
a(I0
I-7
I11
I3
I4
I3
I-1
I-1
tp1389
a(I-1
I-15
I-16
I-7
I-5
I-2
I-1
I-1
tp1390
a(I-2
I18
I15
I0
I0
I-3
I2
I0
tp1391
a(I3
I1
I-9
I1
I-1
I3
I0
I-1
tp1392
a(I-4
I5
I9
I1
I0
I-3
I-1
I-1
tp1393
a(I1
I0
I-2
I0
I-2
I0
I-1
I-2
tp1394
a(I-4
I1
I-11
I-5
I2
I-9
I-2
I0
tp1395
a(I10
I41
I-14
I-3
I-3
I2
I0
I0
tp1396
a(I-6
I-7
I17
I-3
I-3
I-3
I-2
I-3
tp1397
a(I-4
I-3
I-10
I-5
I-3
I0
I0
I-1
tp1398
a(I3
I-3
I6
I0
I-1
I6
I0
I-1
tp1399
a(I2
I4
I3
I2
I1
I0
I-3
I-1
tp1400
a(I0
I-1
I-8
I-5
I-4
I6
I-1
I0
tp1401
a(I-1
I-2
I8
I-4
I-5
I-2
I-1
I0
tp1402
a(I-2
I-3
I-25
I-8
I-4
I-4
I0
I-1
tp1403
a(I0
I10
I26
I7
I-2
I-1
I-2
I0
tp1404
a(I-1
I3
I5
I3
I5
I1
I0
I1
tp1405
a(I-4
I-10
I0
I0
I0
I-3
I0
I-1
tp1406
a(I1
I-1
I-10
I-5
I-5
I-7
I-4
I-1
tp1407
a(I-2
I2
I10
I0
I1
I-6
I-1
I-1
tp1408
a(I2
I-2
I-20
I4
I4
I2
I0
I2
tp1409
a(I-1
I4
I6
I3
I0
I-2
I0
I-1
tp1410
a(I1
I6
I10
I2
I1
I4
I-1
I-1
tp1411
a(I-14
I-46
I-2
I-1
I-3
I-3
I-4
I-4
tp1412
a(I-2
I-1
I-3
I-1
I2
I2
I1
I1
tp1413
a(I-1
I-3
I0
I1
I-1
I-6
I1
I0
tp1414
a(I6
I-1
I-16
I-5
I1
I-4
I-1
I0
tp1415
a(I2
I10
I-3
I-1
I-5
I2
I-1
I0
tp1416
a(I-3
I2
I5
I-7
I-8
I-4
I-2
I-3
tp1417
a(I-2
I19
I41
I1
I2
I2
I0
I-2
tp1418
a(I2
I-5
I-11
I-2
I-3
I-4
I-3
I0
tp1419
a(I-4
I-9
I-9
I-6
I-5
I-4
I-2
I-4
tp1420
a(I-7
I0
I0
I1
I-1
I2
I0
I0
tp1421
a(I0
I5
I-13
I-2
I0
I2
I-1
I2
tp1422
a(I-5
I-1
I-2
I1
I4
I3
I2
I0
tp1423
a(I-15
I-11
I5
I0
I-1
I4
I0
I-2
tp1424
a(I-1
I3
I5
I0
I4
I-3
I-1
I-1
tp1425
a(I3
I-8
I-26
I-14
I-4
I-3
I-4
I-2
tp1426
a(I-5
I0
I-1
I-1
I-7
I-2
I-2
I-1
tp1427
a(I5
I9
I26
I8
I7
I0
I1
I3
tp1428
a(I-2
I-3
I-7
I-6
I-6
I-3
I1
I-2
tp1429
a(I-13
I49
I-4
I2
I3
I-2
I2
I2
tp1430
a(I-8
I-5
I6
I2
I-1
I-2
I1
I-4
tp1431
a(I-1
I3
I-14
I0
I2
I0
I-1
I-2
tp1432
a(I-1
I-15
I-7
I2
I0
I-1
I-1
I-1
tp1433
a(I5
I-4
I-8
I-1
I-3
I-2
I-1
I0
tp1434
a(I-1
I-10
I-6
I-5
I-1
I0
I-3
I-4
tp1435
a(I4
I-4
I3
I-2
I-5
I-6
I-1
I-2
tp1436
a(I3
I-29
I4
I-3
I-4
I-4
I-2
I-4
tp1437
a(I-4
I3
I-13
I-3
I0
I1
I0
I-1
tp1438
a(I3
I1
I-3
I4
I1
I-2
I-1
I2
tp1439
a(I2
I0
I7
I-1
I-5
I3
I0
I0
tp1440
a(I0
I17
I-12
I-4
I0
I0
I-2
I0
tp1441
a(I1
I8
I16
I0
I2
I4
I-2
I-2
tp1442
a(I-7
I-3
I-2
I-1
I-3
I1
I-2
I-4
tp1443
a(I-2
I-9
I12
I2
I1
I2
I-1
I0
tp1444
a(I0
I5
I-1
I0
I1
I0
I-1
I-1
tp1445
a(I0
I5
I-4
I-5
I-5
I-2
I-2
I1
tp1446
a(I0
I8
I3
I1
I2
I-3
I-3
I-2
tp1447
a(I3
I-28
I-11
I-10
I-8
I0
I-2
I-2
tp1448
a(I1
I-3
I8
I-3
I-2
I2
I0
I-1
tp1449
a(I3
I4
I-10
I-2
I-1
I-2
I-2
I0
tp1450
a(I2
I18
I-11
I-5
I0
I-4
I1
I3
tp1451
a(I-2
I-10
I2
I-2
I-3
I-3
I-1
I-3
tp1452
a(I-3
I-4
I-6
I0
I0
I-1
I1
I-2
tp1453
a(I-1
I-9
I-2
I1
I0
I1
I0
I-2
tp1454
a(I3
I1
I-1
I-4
I-2
I-3
I-1
I-1
tp1455
a(I1
I-2
I0
I3
I-1
I-4
I-1
I-2
tp1456
a(I-1
I-6
I-3
I-4
I-3
I-1
I-1
I-1
tp1457
a(I1
I2
I0
I-4
I-2
I2
I-1
I-1
tp1458
a(I0
I1
I-3
I-1
I1
I-1
I0
I-2
tp1459
a(I-6
I-11
I-3
I-1
I0
I1
I-3
I-2
tp1460
a(I0
I-3
I-7
I-5
I-2
I-1
I1
I1
tp1461
a(I0
I-1
I-11
I-1
I-5
I-3
I-1
I1
tp1462
a(I0
I-1
I9
I1
I2
I-4
I0
I-1
tp1463
a(I5
I14
I18
I4
I-9
I-6
I-2
I-1
tp1464
a(I0
I3
I-13
I-1
I1
I-3
I-2
I0
tp1465
a(I3
I7
I4
I-1
I5
I2
I0
I0
tp1466
a(I-1
I4
I5
I-1
I-1
I-1
I1
I-1
tp1467
a(I4
I1
I-11
I-3
I-3
I3
I-1
I-2
tp1468
a(I-1
I-3
I3
I-2
I-4
I-2
I-3
I-1
tp1469
a(I-1
I-1
I-5
I-1
I0
I0
I2
I0
tp1470
a(I-4
I-5
I-16
I-3
I-3
I-4
I-3
I-1
tp1471
a(I1
I4
I14
I1
I7
I2
I1
I0
tp1472
a(I-1
I4
I17
I4
I-4
I-2
I1
I0
tp1473
a(I10
I2
I-2
I-4
I1
I0
I-1
I2
tp1474
a(I1
I22
I7
I1
I-3
I-2
I-1
I1
tp1475
a(I-2
I2
I-8
I1
I1
I2
I2
I1
tp1476
a(I-2
I-1
I-1
I-4
I2
I0
I0
I-2
tp1477
a(I-2
I0
I-2
I-1
I-3
I-4
I-2
I0
tp1478
a(I-3
I-4
I17
I-2
I-3
I-9
I-2
I0
tp1479
a(I-3
I0
I-4
I1
I1
I2
I-1
I0
tp1480
a(I-1
I5
I-5
I0
I-1
I0
I1
I1
tp1481
a(I0
I0
I-9
I-6
I0
I-1
I-1
I-2
tp1482
a(I0
I-9
I-18
I-1
I-2
I-12
I-1
I0
tp1483
a(I-1
I-1
I12
I-3
I-5
I6
I0
I-2
tp1484
a(I1
I-4
I-8
I-3
I4
I0
I-2
I-1
tp1485
a(I-3
I7
I7
I4
I2
I2
I2
I0
tp1486
a(I4
I-19
I-12
I-4
I-1
I-3
I-3
I-2
tp1487
a(I-2
I-8
I-3
I-2
I2
I-1
I1
I-1
tp1488
a(I-5
I-7
I1
I-1
I-5
I-2
I1
I-2
tp1489
a(I-5
I-15
I-7
I-6
I0
I3
I-1
I-2
tp1490
a(I-4
I-3
I-10
I-2
I-2
I-2
I0
I-1
tp1491
a(I3
I-1
I-3
I0
I-2
I-1
I-2
I-3
tp1492
a(I-8
I-43
I3
I-5
I-4
I-1
I-1
I-2
tp1493
a(I2
I7
I5
I2
I3
I-1
I-2
I-1
tp1494
a(I3
I4
I-4
I2
I1
I0
I-1
I0
tp1495
a(I-7
I-8
I7
I-1
I-4
I0
I-3
I-2
tp1496
a(I3
I4
I-15
I-4
I-1
I-1
I-1
I-1
tp1497
a(I0
I1
I5
I-5
I-10
I-4
I-1
I0
tp1498
a(I-2
I2
I-14
I-4
I0
I-1
I-1
I-1
tp1499
a(I4
I2
I16
I4
I0
I-6
I-3
I0
tp1500
a(I-4
I-3
I-1
I-3
I1
I6
I1
I-2
tp1501
a(I1
I2
I13
I5
I3
I3
I0
I1
tp1502
a(I0
I1
I5
I3
I2
I-1
I0
I0
tp1503
a(I-1
I0
I-14
I-6
I-2
I1
I1
I-1
tp1504
a(I1
I-5
I-7
I-3
I-1
I-5
I-1
I-2
tp1505
a(I1
I-8
I-18
I-6
I-1
I3
I0
I-3
tp1506
a(I-3
I4
I4
I3
I0
I-1
I-1
I-1
tp1507
a(I-4
I0
I-10
I-6
I-2
I-1
I-1
I0
tp1508
a(I8
I-7
I-6
I-2
I-3
I0
I-3
I-2
tp1509
a(I-4
I-5
I-7
I-3
I-1
I-4
I-2
I-3
tp1510
a(I1
I5
I-2
I-3
I0
I-5
I-1
I-1
tp1511
a(I4
I10
I25
I6
I3
I5
I3
I0
tp1512
a(I-8
I-2
I7
I0
I-1
I-2
I-2
I-3
tp1513
a(I6
I-5
I-15
I-3
I2
I-2
I-1
I1
tp1514
a(I-3
I4
I6
I-2
I-2
I-3
I1
I-1
tp1515
a(I0
I1
I-11
I-3
I-2
I2
I-1
I-1
tp1516
a(I-1
I3
I5
I-2
I1
I2
I-3
I-1
tp1517
a(I0
I6
I4
I4
I-2
I2
I1
I-1
tp1518
a(I-2
I-2
I-6
I-1
I6
I-1
I0
I1
tp1519
a(I-3
I8
I7
I-3
I-7
I-7
I-3
I-2
tp1520
a(I1
I-10
I-3
I-3
I-4
I-5
I-2
I0
tp1521
a(I-2
I-1
I-5
I-3
I0
I1
I2
I0
tp1522
a(I0
I-1
I-1
I0
I1
I-2
I-3
I-1
tp1523
a(I1
I0
I-13
I-1
I0
I0
I0
I0
tp1524
a(I-4
I-2
I-10
I-2
I2
I3
I0
I-2
tp1525
a(I6
I32
I17
I3
I3
I1
I-1
I-1
tp1526
a(I3
I-17
I-12
I-4
I-5
I-6
I-2
I-1
tp1527
a(I-7
I-1
I9
I-1
I-4
I-2
I0
I0
tp1528
a(I4
I17
I-3
I-2
I-3
I-3
I-2
I2
tp1529
a(I2
I2
I-12
I0
I1
I5
I2
I2
tp1530
a(I0
I-1
I3
I1
I2
I2
I2
I1
tp1531
a(I1
I-4
I15
I5
I-1
I-3
I-1
I0
tp1532
a(I-4
I-8
I6
I1
I-1
I0
I0
I-2
tp1533
a(I-1
I-7
I-6
I-2
I-8
I-5
I-2
I0
tp1534
a(I0
I3
I-5
I-4
I0
I-4
I-2
I-1
tp1535
a(I-2
I5
I-10
I-4
I1
I6
I-1
I-1
tp1536
a(I0
I-5
I-1
I3
I1
I-2
I-2
I-3
tp1537
a(I1
I-2
I-2
I1
I0
I-5
I-1
I0
tp1538
a(I-3
I-2
I-2
I-4
I-4
I1
I-2
I-2
tp1539
a(I1
I-3
I-13
I-5
I-4
I-4
I-2
I-1
tp1540
a(I-7
I-11
I19
I4
I-1
I2
I0
I0
tp1541
a(I2
I11
I-5
I-2
I-2
I-3
I-2
I-1
tp1542
a(I2
I-2
I-6
I-1
I-1
I-1
I-1
I-2
tp1543
a(I-5
I-21
I0
I-1
I0
I-1
I-2
I-3
tp1544
a(I-1
I-5
I-7
I2
I2
I2
I-2
I-1
tp1545
a(I1
I-2
I18
I-4
I-4
I-6
I-2
I0
tp1546
a(I2
I34
I-22
I-8
I-2
I-1
I-2
I0
tp1547
a(I2
I-1
I-2
I-5
I-3
I-2
I-2
I1
tp1548
a(I-3
I-5
I-6
I-2
I0
I-5
I-1
I-1
tp1549
a(I0
I-12
I17
I5
I5
I2
I1
I-2
tp1550
a(I-2
I-1
I-3
I2
I-6
I-1
I1
I-2
tp1551
a(I-2
I2
I-5
I-5
I-4
I-1
I-1
I1
tp1552
a(I1
I-3
I1
I-1
I1
I-2
I-2
I-2
tp1553
a(I1
I-9
I-13
I-3
I2
I3
I1
I0
tp1554
a(I-1
I-1
I-5
I-4
I-2
I-4
I0
I0
tp1555
a(I-4
I29
I2
I4
I1
I2
I2
I2
tp1556
a(I2
I-7
I11
I-4
I-4
I-3
I-5
I-3
tp1557
a(I-4
I-3
I3
I-6
I-4
I-4
I-4
I-2
tp1558
a(I1
I2
I-9
I0
I-2
I-1
I1
I1
tp1559
a(I-2
I-5
I0
I3
I6
I-3
I0
I1
tp1560
a(I-1
I-3
I-2
I2
I-3
I0
I1
I-1
tp1561
a(I2
I-6
I-11
I-1
I2
I0
I-2
I-2
tp1562
a(I-2
I25
I2
I2
I-2
I1
I2
I1
tp1563
a(I0
I2
I12
I-2
I-3
I-3
I-1
I-1
tp1564
a(I-5
I-1
I-5
I-1
I0
I-2
I-1
I1
tp1565
a(I-3
I1
I-2
I-2
I-4
I-4
I-2
I-1
tp1566
a(I-2
I-4
I-8
I0
I0
I2
I-2
I0
tp1567
a(I2
I-6
I-2
I-1
I1
I3
I0
I-1
tp1568
a(I0
I-4
I-3
I-4
I-3
I-6
I-1
I-2
tp1569
a(I-1
I-5
I-12
I-3
I-3
I-2
I-2
I-1
tp1570
a(I0
I13
I-2
I-3
I-1
I0
I1
I0
tp1571
a(I-2
I-3
I7
I1
I1
I3
I0
I0
tp1572
a(I-1
I0
I3
I-5
I0
I1
I-1
I1
tp1573
a(I-5
I-25
I-15
I1
I-1
I1
I0
I-1
tp1574
a(I-2
I-4
I14
I4
I2
I-4
I-2
I-1
tp1575
a(I1
I-5
I-31
I-7
I-5
I0
I0
I1
tp1576
a(I0
I0
I32
I2
I-2
I0
I-3
I0
tp1577
a(I-2
I7
I17
I3
I1
I1
I-4
I-2
tp1578
a(I0
I-2
I-1
I-1
I-2
I3
I-1
I0
tp1579
a(I2
I-7
I3
I-2
I-3
I-3
I-2
I-2
tp1580
a(I-1
I1
I-4
I1
I6
I0
I1
I1
tp1581
a(I-1
I-1
I-8
I-4
I-4
I-3
I-1
I-2
tp1582
a(I-5
I-7
I-5
I1
I4
I2
I0
I-3
tp1583
aa(lp1584
(I-1
I-2
I0
I5
I2
I-1
I-2
I-1
tp1585
a(I2
I-1
I-2
I-2
I-1
I4
I0
I1
tp1586
a(I0
I6
I-24
I-5
I0
I-3
I-1
I0
tp1587
a(I0
I-8
I11
I3
I2
I1
I-3
I0
tp1588
a(I0
I0
I0
I-4
I-2
I4
I1
I1
tp1589
a(I-1
I-4
I-7
I-7
I-4
I-3
I-2
I-3
tp1590
a(I0
I-4
I5
I4
I1
I0
I0
I-2
tp1591
a(I0
I5
I-5
I-2
I0
I4
I-1
I-2
tp1592
a(I-2
I-7
I-3
I-1
I-3
I-4
I-4
I-1
tp1593
a(I-2
I5
I-2
I0
I-3
I0
I-1
I-2
tp1594
a(I2
I-8
I4
I0
I5
I4
I-1
I1
tp1595
a(I-3
I-5
I-6
I-1
I1
I-3
I0
I-2
tp1596
a(I-1
I-1
I23
I0
I-2
I0
I-1
I0
tp1597
a(I0
I1
I-4
I-1
I-4
I-2
I-1
I0
tp1598
a(I1
I4
I-3
I-2
I1
I0
I1
I-1
tp1599
a(I-1
I-2
I-5
I1
I-2
I-2
I0
I0
tp1600
a(I-3
I-1
I-18
I-6
I3
I2
I-3
I-4
tp1601
a(I1
I-1
I22
I5
I-3
I-2
I-2
I-1
tp1602
a(I1
I-2
I-5
I-1
I2
I-1
I-1
I0
tp1603
a(I-2
I-3
I8
I-1
I0
I0
I-1
I-1
tp1604
a(I-3
I-5
I-10
I-2
I3
I2
I0
I-2
tp1605
a(I0
I2
I22
I2
I3
I-3
I-3
I0
tp1606
a(I1
I5
I-3
I-1
I-5
I-1
I2
I1
tp1607
a(I-4
I-6
I-8
I-2
I2
I2
I0
I-1
tp1608
a(I1
I-4
I5
I3
I2
I2
I0
I-1
tp1609
a(I1
I-7
I-24
I-6
I-2
I0
I-2
I-1
tp1610
a(I1
I4
I24
I0
I-3
I-6
I-2
I-1
tp1611
a(I-1
I-6
I0
I-1
I-4
I0
I0
I-1
tp1612
a(I0
I1
I4
I0
I-3
I-5
I-1
I-4
tp1613
a(I0
I-4
I-1
I-1
I-5
I-6
I-4
I-3
tp1614
a(I-5
I-9
I-17
I-3
I-1
I3
I-1
I-4
tp1615
a(I1
I26
I6
I3
I2
I0
I0
I1
tp1616
a(I-2
I-4
I-4
I-1
I2
I-2
I-2
I-1
tp1617
a(I-4
I3
I4
I-1
I-6
I2
I-1
I-1
tp1618
a(I-1
I-2
I-3
I0
I-1
I-5
I-1
I1
tp1619
a(I-3
I-7
I-8
I0
I-1
I2
I-2
I-2
tp1620
a(I-2
I-3
I-6
I-2
I-2
I-2
I0
I-2
tp1621
a(I-1
I-8
I0
I-3
I-3
I-4
I-2
I0
tp1622
a(I-2
I-4
I6
I2
I4
I1
I-2
I-3
tp1623
a(I0
I10
I-1
I-1
I-1
I-4
I-2
I-1
tp1624
a(I-2
I0
I-5
I-2
I2
I0
I-1
I1
tp1625
a(I3
I-6
I-7
I-4
I-5
I-3
I0
I-2
tp1626
a(I-2
I-2
I5
I0
I-2
I-1
I-2
I0
tp1627
a(I0
I-12
I22
I-2
I-1
I1
I1
I-2
tp1628
a(I-2
I1
I-2
I-2
I-4
I-3
I-1
I-1
tp1629
a(I-1
I3
I0
I0
I2
I1
I0
I1
tp1630
a(I-2
I-1
I-7
I-2
I-3
I-5
I-1
I-2
tp1631
a(I-2
I1
I2
I-1
I-3
I-8
I-1
I-3
tp1632
a(I-1
I1
I1
I-2
I1
I0
I1
I-1
tp1633
a(I-1
I1
I-3
I3
I3
I0
I0
I0
tp1634
a(I-1
I-12
I3
I-1
I-4
I-3
I-1
I-1
tp1635
a(I0
I17
I-3
I0
I-3
I1
I-3
I-5
tp1636
a(I0
I9
I-5
I1
I-2
I1
I-2
I-1
tp1637
a(I2
I-1
I8
I2
I2
I-2
I0
I1
tp1638
a(I0
I-8
I3
I-2
I-5
I-2
I-2
I-1
tp1639
a(I-1
I-1
I6
I0
I0
I0
I0
I-2
tp1640
a(I-4
I0
I-1
I-2
I0
I7
I0
I-1
tp1641
a(I4
I-1
I-5
I4
I6
I3
I-1
I1
tp1642
a(I-2
I3
I-25
I-11
I-3
I-2
I-1
I-1
tp1643
a(I1
I-4
I17
I-1
I-4
I-5
I-3
I0
tp1644
a(I0
I4
I-1
I0
I0
I-3
I-3
I0
tp1645
a(I-2
I-10
I0
I-1
I-1
I-1
I0
I-1
tp1646
a(I0
I1
I0
I-1
I0
I-2
I-1
I0
tp1647
a(I0
I2
I-5
I-2
I-3
I-5
I-4
I-2
tp1648
a(I0
I-4
I3
I0
I2
I3
I1
I1
tp1649
a(I-1
I-12
I1
I0
I0
I1
I-1
I-2
tp1650
a(I-1
I-3
I0
I-3
I-2
I2
I0
I-2
tp1651
a(I-1
I-1
I-3
I0
I-1
I-2
I-2
I-1
tp1652
a(I-1
I-4
I-5
I-2
I-6
I-5
I-2
I0
tp1653
a(I-2
I-1
I-3
I1
I2
I2
I0
I-1
tp1654
a(I1
I4
I5
I-1
I-1
I-4
I0
I-1
tp1655
a(I-3
I-2
I-10
I-3
I2
I1
I-2
I-2
tp1656
a(I1
I-1
I1
I-3
I-4
I3
I0
I1
tp1657
a(I-3
I-2
I-3
I1
I-4
I-2
I0
I-1
tp1658
a(I2
I-1
I5
I0
I-4
I-2
I0
I-1
tp1659
a(I-3
I-3
I-10
I-3
I-4
I-2
I-4
I-2
tp1660
a(I1
I1
I6
I-2
I-2
I-7
I-2
I-1
tp1661
a(I-8
I-17
I-2
I0
I-1
I4
I-1
I-1
tp1662
a(I5
I22
I-7
I1
I3
I-2
I-1
I-1
tp1663
a(I-1
I-1
I6
I4
I-1
I7
I0
I-1
tp1664
a(I-1
I-16
I-9
I-3
I2
I-4
I-2
I2
tp1665
a(I1
I-1
I-11
I1
I-3
I-1
I-1
I-2
tp1666
a(I-4
I12
I15
I-3
I-1
I-3
I-1
I-3
tp1667
a(I9
I-23
I2
I2
I3
I0
I1
I3
tp1668
a(I-2
I-40
I18
I8
I2
I-1
I-1
I0
tp1669
a(I0
I38
I-15
I-20
I-2
I0
I0
I1
tp1670
a(I-6
I-30
I2
I4
I3
I-2
I0
I-1
tp1671
a(I0
I28
I-6
I-4
I-6
I-3
I-1
I-3
tp1672
a(I4
I12
I-10
I1
I7
I3
I2
I2
tp1673
a(I-3
I-14
I-10
I-2
I-9
I-4
I-3
I-3
tp1674
a(I-5
I-37
I-4
I-13
I-17
I-6
I0
I-1
tp1675
a(I3
I5
I10
I5
I-2
I1
I-2
I3
tp1676
a(I-4
I-7
I-112
I-26
I-12
I-4
I-3
I-3
tp1677
a(I0
I0
I19
I3
I-13
I-4
I-2
I-1
tp1678
a(I4
I69
I11
I18
I6
I6
I1
I2
tp1679
a(I-9
I-27
I-12
I-18
I-2
I-1
I-1
I-5
tp1680
a(I-4
I-34
I-7
I-17
I-1
I-3
I0
I-3
tp1681
a(I3
I-34
I24
I7
I2
I3
I1
I0
tp1682
a(I-7
I-20
I-40
I-25
I-12
I-4
I-7
I-5
tp1683
a(I-3
I-14
I32
I10
I1
I-4
I-2
I-3
tp1684
a(I5
I-47
I-10
I20
I0
I-1
I-1
I2
tp1685
a(I9
I63
I-31
I-1
I7
I6
I1
I0
tp1686
a(I-8
I-5
I62
I11
I6
I0
I0
I-3
tp1687
a(I-7
I4
I-5
I-9
I-1
I-4
I-2
I-2
tp1688
a(I2
I8
I44
I5
I-4
I-3
I0
I0
tp1689
a(I-5
I-13
I-28
I20
I1
I3
I1
I-1
tp1690
a(I0
I-28
I58
I-23
I-5
I-5
I-4
I-4
tp1691
a(I2
I52
I-61
I-34
I-12
I-1
I-1
I1
tp1692
a(I-8
I-63
I34
I3
I-6
I-2
I0
I-3
tp1693
a(I8
I-49
I14
I10
I12
I5
I3
I4
tp1694
a(I10
I75
I6
I30
I0
I3
I3
I6
tp1695
a(I-17
I-82
I-21
I-16
I0
I-3
I-6
I-7
tp1696
a(I16
I24
I44
I15
I-13
I-1
I1
I4
tp1697
a(I13
I12
I42
I51
I5
I-2
I2
I4
tp1698
a(I-14
I-4
I-45
I-49
I-6
I-3
I-6
I-8
tp1699
a(I17
I41
I-73
I21
I40
I17
I10
I11
tp1700
a(I15
I73
I-30
I35
I48
I18
I9
I10
tp1701
a(I10
I-28
I-18
I15
I10
I5
I3
I5
tp1702
a(I-10
I-98
I-23
I-34
I-35
I-10
I-2
I-4
tp1703
a(I1
I50
I15
I1
I-1
I-4
I-2
I-6
tp1704
a(I-9
I-2
I4
I-11
I9
I0
I-1
I-4
tp1705
a(I-4
I15
I-13
I-45
I1
I-2
I0
I-2
tp1706
a(I8
I34
I54
I76
I-17
I-4
I-3
I1
tp1707
a(I-9
I-54
I-41
I-98
I-1
I-3
I-4
I-5
tp1708
a(I-7
I-18
I9
I86
I-65
I-16
I-11
I-8
tp1709
a(I2
I-57
I66
I-79
I-20
I2
I-2
I0
tp1710
a(I1
I40
I-57
I-57
I16
I0
I2
I0
tp1711
a(I7
I33
I58
I105
I46
I15
I8
I3
tp1712
a(I14
I-23
I-79
I70
I27
I17
I11
I8
tp1713
a(I-8
I-55
I-25
I-4
I-41
I-25
I-8
I-7
tp1714
a(I7
I-23
I-10
I-59
I-4
I7
I2
I2
tp1715
a(I-21
I-57
I-22
I-66
I-2
I-12
I-9
I-14
tp1716
a(I3
I-11
I6
I21
I-73
I-19
I-10
I-2
tp1717
a(I6
I-14
I-86
I69
I66
I19
I9
I6
tp1718
a(I-8
I59
I10
I15
I47
I7
I3
I-1
tp1719
a(I0
I-23
I6
I50
I-49
I-6
I-4
I0
tp1720
a(I-17
I-48
I-16
I-120
I-20
I-7
I-5
I-7
tp1721
a(I4
I-57
I-70
I15
I33
I11
I2
I4
tp1722
a(I-17
I-57
I45
I107
I-29
I-17
I-8
I-6
tp1723
a(I37
I95
I2
I29
I59
I29
I18
I20
tp1724
a(I-1
I-1
I102
I109
I12
I-4
I-6
I-8
tp1725
a(I5
I-128
I13
I-43
I22
I3
I9
I9
tp1726
a(I-14
I-29
I-49
I52
I71
I9
I1
I-5
tp1727
a(I-28
I18
I41
I-102
I-18
I-18
I-15
I-16
tp1728
a(I24
I-45
I-74
I84
I55
I28
I16
I21
tp1729
a(I-27
I-55
I-96
I-70
I-32
I-10
I-14
I-18
tp1730
a(I18
I-27
I-47
I60
I6
I13
I4
I12
tp1731
a(I-14
I-11
I55
I67
I-18
I-21
I-9
I-11
tp1732
a(I-1
I-10
I84
I-70
I21
I-2
I0
I-4
tp1733
a(I16
I10
I-78
I87
I18
I-2
I8
I13
tp1734
a(I-4
I-19
I-86
I-101
I27
I11
I-4
I-1
tp1735
a(I-20
I-10
I-83
I61
I59
I19
I3
I-7
tp1736
a(I1
I-18
I-77
I-49
I-18
I-21
I-5
I-1
tp1737
a(I1
I1
I113
I-86
I-47
I-16
I-5
I2
tp1738
a(I39
I65
I-46
I-76
I13
I3
I9
I17
tp1739
a(I-13
I-40
I3
I15
I3
I-7
I-3
I-6
tp1740
a(I-7
I50
I15
I-40
I-89
I-18
I-15
I-13
tp1741
a(I-7
I-57
I-115
I-33
I20
I13
I5
I3
tp1742
a(I-6
I-58
I19
I-43
I24
I1
I1
I-3
tp1743
a(I3
I98
I54
I78
I17
I2
I1
I0
tp1744
a(I-38
I-112
I-41
I103
I-55
I-46
I-15
I-17
tp1745
a(I-25
I-64
I-60
I-85
I-13
I-18
I-5
I-9
tp1746
a(I21
I-14
I-89
I-4
I24
I10
I8
I9
tp1747
a(I-26
I-128
I-48
I37
I6
I1
I-2
I-14
tp1748
a(I16
I87
I12
I35
I48
I25
I12
I13
tp1749
a(I6
I-100
I6
I92
I-45
I3
I-6
I4
tp1750
a(I12
I37
I105
I37
I17
I-22
I-2
I0
tp1751
a(I-26
I-116
I-124
I-23
I5
I-1
I-3
I-7
tp1752
a(I-19
I25
I48
I-119
I-43
I-19
I-17
I-18
tp1753
a(I31
I-11
I7
I-83
I-1
I-10
I3
I13
tp1754
a(I-8
I30
I12
I63
I14
I30
I8
I-1
tp1755
a(I13
I13
I46
I-124
I-61
I-39
I-9
I1
tp1756
a(I13
I-47
I36
I124
I9
I27
I6
I7
tp1757
a(I-26
I-17
I-19
I11
I51
I-1
I-2
I-10
tp1758
a(I0
I-87
I0
I44
I-8
I-3
I5
I8
tp1759
a(I0
I-47
I-65
I59
I30
I10
I6
I6
tp1760
a(I-4
I-11
I9
I-6
I-42
I-16
I-12
I-11
tp1761
a(I-18
I-34
I-75
I116
I40
I9
I-3
I-8
tp1762
a(I8
I39
I-63
I-119
I-37
I-9
I-1
I4
tp1763
a(I53
I104
I82
I5
I8
I26
I11
I21
tp1764
a(I-22
I-32
I-8
I-2
I-11
I11
I-3
I-8
tp1765
a(I-19
I-37
I57
I73
I-3
I-27
I-13
I-14
tp1766
a(I19
I-24
I68
I1
I-101
I29
I-1
I8
tp1767
a(I-14
I-36
I-86
I17
I13
I-1
I-1
I-2
tp1768
a(I-4
I27
I27
I-1
I65
I-8
I0
I-4
tp1769
a(I-22
I-55
I29
I4
I-47
I-27
I-10
I-12
tp1770
a(I32
I106
I3
I-68
I-7
I15
I5
I13
tp1771
a(I22
I127
I10
I-128
I18
I28
I0
I2
tp1772
a(I-19
I-50
I-15
I-18
I-8
I-1
I-4
I-5
tp1773
a(I-21
I-120
I-17
I-70
I2
I-6
I-2
I-3
tp1774
a(I15
I0
I-13
I11
I47
I21
I7
I10
tp1775
a(I-4
I-43
I48
I76
I-24
I-7
I-5
I-7
tp1776
a(I-7
I-20
I-20
I23
I-40
I-36
I-8
I-4
tp1777
a(I1
I93
I4
I-11
I-28
I-13
I-2
I1
tp1778
a(I3
I-77
I14
I-31
I9
I-2
I-1
I-3
tp1779
a(I7
I9
I13
I24
I29
I-11
I1
I3
tp1780
a(I8
I-2
I-38
I-51
I2
I3
I1
I0
tp1781
a(I-22
I-36
I-65
I27
I9
I-14
I-10
I-16
tp1782
a(I34
I41
I-3
I8
I42
I25
I15
I19
tp1783
a(I13
I80
I65
I109
I-8
I0
I2
I2
tp1784
a(I-9
I-20
I-26
I-9
I14
I19
I1
I-2
tp1785
a(I8
I45
I-24
I-43
I1
I9
I8
I9
tp1786
a(I2
I112
I43
I38
I-16
I7
I0
I0
tp1787
a(I16
I-68
I36
I-27
I-18
I2
I-8
I-5
tp1788
a(I7
I30
I35
I2
I2
I-18
I3
I4
tp1789
a(I1
I21
I-63
I-70
I12
I1
I1
I2
tp1790
a(I-9
I-57
I-32
I15
I-3
I-2
I-4
I-6
tp1791
a(I-7
I-63
I12
I-51
I-22
I-12
I-7
I-5
tp1792
a(I5
I11
I59
I11
I-2
I12
I4
I2
tp1793
a(I-18
I20
I-75
I4
I-3
I-4
I-4
I-6
tp1794
a(I-1
I65
I48
I6
I1
I5
I4
I0
tp1795
a(I2
I-48
I-71
I16
I28
I19
I7
I2
tp1796
a(I-7
I-24
I-16
I-20
I-14
I-12
I-4
I-3
tp1797
a(I-6
I42
I34
I26
I2
I4
I-1
I-2
tp1798
a(I0
I-37
I-47
I-15
I-12
I6
I-3
I-3
tp1799
a(I7
I34
I-6
I-19
I12
I3
I3
I3
tp1800
a(I-2
I-34
I-47
I-16
I-7
I-3
I-2
I1
tp1801
a(I-6
I-8
I-11
I5
I-3
I-9
I-4
I-3
tp1802
a(I10
I-7
I26
I9
I8
I0
I4
I4
tp1803
a(I-5
I27
I-19
I4
I9
I13
I3
I1
tp1804
a(I-1
I-9
I34
I1
I9
I-2
I-2
I-4
tp1805
a(I5
I9
I-20
I10
I-6
I-1
I1
I2
tp1806
a(I-4
I30
I13
I-5
I-24
I-12
I-2
I-3
tp1807
a(I-6
I1
I26
I5
I3
I1
I-3
I-2
tp1808
a(I-12
I-29
I-16
I-5
I-1
I0
I27
I-12
tp1809
a(I2
I-1
I-7
I-6
I-7
I-3
I2
I7
tp1810
a(I-2
I-9
I2
I5
I0
I-4
I-3
I-6
tp1811
a(I-3
I-2
I-25
I-3
I1
I0
I5
I23
tp1812
a(I-4
I26
I-5
I-2
I-4
I-4
I-13
I-12
tp1813
a(I-2
I-4
I-1
I-4
I-4
I-7
I-3
I-9
tp1814
a(I4
I10
I42
I7
I-1
I1
I5
I0
tp1815
a(I3
I5
I-11
I1
I1
I-4
I1
I-5
tp1816
a(I2
I35
I3
I1
I1
I-2
I-2
I10
tp1817
a(I-2
I-24
I-10
I0
I-2
I1
I-3
I-14
tp1818
a(I1
I6
I6
I-2
I2
I2
I0
I-1
tp1819
a(I4
I-8
I-28
I-2
I0
I3
I9
I35
tp1820
a(I-9
I-3
I-15
I-3
I-2
I-4
I-3
I0
tp1821
a(I1
I38
I20
I6
I3
I2
I4
I-32
tp1822
a(I-1
I-9
I-13
I-3
I4
I2
I-1
I10
tp1823
a(I2
I-2
I7
I-1
I-6
I-8
I-3
I-7
tp1824
a(I3
I15
I-16
I-5
I0
I0
I0
I-1
tp1825
a(I-3
I-13
I5
I-7
I-9
I0
I-3
I-8
tp1826
a(I-7
I-9
I-2
I2
I7
I-2
I2
I9
tp1827
a(I-2
I-11
I-4
I-7
I-6
I-2
I-3
I3
tp1828
a(I-2
I-6
I-7
I4
I-3
I-6
I-4
I7
tp1829
a(I2
I2
I19
I-4
I-4
I7
I-2
I-5
tp1830
a(I3
I-9
I28
I1
I10
I7
I2
I2
tp1831
a(I4
I4
I-6
I-1
I1
I-2
I-3
I10
tp1832
a(I2
I-16
I-7
I-3
I-9
I-8
I-1
I7
tp1833
a(I-1
I-2
I-2
I0
I1
I-9
I-1
I3
tp1834
a(I-2
I-7
I-5
I-2
I-4
I-1
I-1
I-5
tp1835
a(I1
I9
I1
I-2
I-9
I-3
I0
I1
tp1836
a(I-6
I4
I-10
I1
I3
I0
I-2
I0
tp1837
a(I1
I-9
I0
I-1
I2
I2
I0
I0
tp1838
a(I1
I8
I0
I3
I-2
I-5
I-1
I-2
tp1839
a(I-12
I-25
I2
I1
I4
I3
I1
I-3
tp1840
a(I0
I0
I-8
I-7
I-5
I-2
I0
I0
tp1841
a(I6
I-3
I-5
I1
I1
I-15
I2
I-1
tp1842
a(I0
I-4
I1
I-8
I-1
I5
I3
I-1
tp1843
a(I-3
I10
I24
I8
I2
I0
I-4
I-1
tp1844
a(I2
I-2
I-6
I-10
I-11
I-3
I-3
I-1
tp1845
a(I-2
I0
I7
I4
I-1
I1
I-2
I-2
tp1846
a(I1
I2
I-3
I1
I10
I4
I2
I4
tp1847
a(I-5
I-21
I-21
I-8
I-4
I-6
I-1
I-2
tp1848
a(I-1
I-4
I7
I-1
I5
I7
I-4
I0
tp1849
a(I1
I-2
I-16
I-3
I-2
I-3
I0
I-2
tp1850
a(I-1
I-10
I28
I8
I-1
I-4
I-4
I-1
tp1851
a(I4
I22
I3
I-1
I-3
I-2
I2
I0
tp1852
a(I6
I-5
I2
I-6
I-3
I4
I-3
I2
tp1853
a(I1
I2
I-23
I4
I1
I3
I-4
I-2
tp1854
a(I1
I-7
I24
I-1
I7
I2
I2
I0
tp1855
a(I1
I-2
I-10
I-4
I-14
I-3
I-1
I2
tp1856
a(I-2
I13
I-1
I-4
I-9
I-3
I3
I0
tp1857
a(I7
I-6
I-1
I2
I1
I2
I-1
I-2
tp1858
a(I-2
I-2
I-9
I0
I3
I1
I0
I-1
tp1859
a(I0
I1
I7
I4
I3
I0
I0
I2
tp1860
a(I-1
I12
I-11
I-1
I4
I0
I-1
I1
tp1861
a(I-5
I1
I-20
I-5
I-7
I-4
I-2
I-3
tp1862
a(I2
I3
I23
I6
I4
I-1
I2
I0
tp1863
a(I-3
I-2
I-3
I-5
I-6
I-6
I-3
I-4
tp1864
a(I-4
I-1
I-34
I-9
I-8
I0
I-1
I-5
tp1865
a(I1
I-12
I14
I-3
I-5
I-3
I-2
I-1
tp1866
a(I0
I2
I2
I1
I-2
I3
I-2
I0
tp1867
a(I-2
I16
I11
I7
I0
I3
I1
I1
tp1868
a(I3
I-25
I1
I1
I-1
I-5
I-2
I-2
tp1869
a(I-3
I1
I18
I1
I-1
I1
I-1
I-1
tp1870
a(I-2
I4
I-4
I-6
I1
I-5
I-3
I-1
tp1871
a(I-1
I-2
I-13
I-5
I-5
I-7
I-2
I-2
tp1872
a(I-1
I3
I6
I-1
I-1
I-1
I0
I1
tp1873
a(I1
I-2
I-10
I-2
I-2
I-1
I-2
I0
tp1874
a(I0
I0
I-5
I0
I-1
I-4
I-1
I-1
tp1875
a(I2
I-4
I6
I-1
I5
I2
I3
I-1
tp1876
a(I-1
I-2
I-7
I-3
I-3
I-1
I-1
I-1
tp1877
a(I-1
I-11
I10
I-1
I0
I1
I0
I-2
tp1878
a(I-6
I-4
I-19
I-2
I2
I-2
I-2
I-1
tp1879
a(I-1
I0
I33
I1
I-7
I-1
I-2
I-2
tp1880
a(I2
I1
I-12
I-7
I6
I1
I2
I-1
tp1881
a(I-2
I2
I-5
I2
I1
I-7
I-2
I-1
tp1882
a(I-1
I2
I-11
I-1
I-4
I3
I-1
I0
tp1883
a(I-3
I-3
I7
I4
I4
I-1
I-1
I-2
tp1884
a(I-4
I-9
I-3
I0
I-3
I-2
I0
I0
tp1885
a(I1
I-4
I-20
I-5
I-1
I0
I-1
I0
tp1886
a(I0
I3
I10
I4
I7
I8
I0
I1
tp1887
a(I0
I0
I-7
I-3
I-7
I-6
I-1
I-1
tp1888
a(I0
I3
I2
I5
I0
I-1
I-1
I0
tp1889
a(I0
I2
I6
I1
I-1
I0
I-1
I0
tp1890
a(I-1
I-1
I3
I2
I-4
I1
I0
I-1
tp1891
a(I-2
I2
I-6
I-4
I5
I3
I-1
I0
tp1892
a(I3
I-3
I18
I4
I-2
I0
I-1
I-2
tp1893
a(I1
I0
I0
I-3
I0
I1
I-2
I-1
tp1894
a(I1
I0
I-17
I-5
I-1
I-1
I-2
I1
tp1895
a(I0
I3
I6
I2
I2
I5
I0
I0
tp1896
a(I0
I-6
I-8
I-3
I-2
I-1
I-1
I-2
tp1897
a(I1
I-2
I-2
I-5
I-1
I-9
I0
I-2
tp1898
a(I-2
I2
I5
I0
I4
I8
I4
I-2
tp1899
a(I-1
I5
I1
I5
I-4
I-2
I-1
I-1
tp1900
a(I-1
I-1
I-7
I-1
I-1
I3
I0
I-4
tp1901
a(I-2
I-2
I21
I2
I4
I-1
I0
I-2
tp1902
a(I0
I-4
I-13
I-2
I-2
I-5
I-2
I-1
tp1903
a(I0
I-3
I-15
I-2
I1
I0
I0
I-1
tp1904
a(I-1
I-1
I-7
I3
I0
I-4
I-2
I-2
tp1905
a(I-3
I7
I6
I-25
I-3
I-1
I1
I-1
tp1906
a(I2
I2
I5
I15
I-1
I2
I-1
I-1
tp1907
a(I-2
I-4
I-13
I-7
I-3
I-2
I-2
I-1
tp1908
a(I-1
I1
I21
I-1
I-4
I0
I-1
I-1
tp1909
a(I-1
I1
I18
I11
I3
I2
I0
I0
tp1910
a(I-2
I0
I-21
I-16
I-4
I3
I2
I1
tp1911
a(I2
I-1
I-6
I5
I0
I-1
I-1
I-1
tp1912
a(I-2
I-1
I-1
I2
I-2
I-5
I-3
I-1
tp1913
a(I-2
I-2
I-1
I-2
I-4
I-4
I-2
I-2
tp1914
a(I-1
I-1
I13
I-2
I1
I0
I-1
I-2
tp1915
a(I-1
I-3
I-31
I-5
I-3
I-4
I-1
I0
tp1916
a(I0
I7
I18
I2
I-2
I-3
I-1
I-2
tp1917
a(I-2
I-7
I1
I-6
I-3
I-1
I-2
I-1
tp1918
a(I1
I2
I3
I2
I0
I1
I-1
I-1
tp1919
a(I2
I-20
I-14
I7
I3
I-1
I-1
I-3
tp1920
a(I-3
I-2
I-3
I3
I2
I1
I0
I-1
tp1921
a(I-2
I4
I-6
I-1
I0
I2
I-2
I-1
tp1922
a(I1
I0
I-1
I-1
I1
I-3
I1
I-1
tp1923
a(I-4
I1
I-21
I-7
I-2
I0
I-2
I0
tp1924
a(I-2
I-2
I28
I5
I1
I-1
I-3
I-2
tp1925
a(I-1
I-2
I-10
I-8
I-3
I-6
I-2
I-1
tp1926
a(I-3
I-3
I-4
I3
I0
I7
I1
I-1
tp1927
a(I0
I1
I0
I-3
I4
I1
I1
I-2
tp1928
a(I-4
I-6
I0
I1
I-1
I-3
I0
I2
tp1929
a(I-1
I-1
I-2
I-4
I-2
I-2
I-1
I-1
tp1930
a(I-3
I-1
I-3
I5
I4
I-1
I2
I-2
tp1931
a(I-1
I-4
I-15
I-8
I-2
I4
I-1
I-1
tp1932
a(I0
I6
I5
I-8
I-1
I1
I-2
I-3
tp1933
a(I8
I-2
I-9
I5
I-4
I-3
I-2
I1
tp1934
a(I-2
I-3
I1
I-3
I-3
I-3
I0
I1
tp1935
a(I-2
I0
I-15
I-15
I3
I-1
I0
I-1
tp1936
a(I0
I-3
I-6
I-9
I1
I1
I-2
I-1
tp1937
a(I-3
I-3
I-10
I2
I2
I0
I-1
I-1
tp1938
a(I-1
I2
I1
I-1
I-7
I-5
I-3
I-1
tp1939
a(I-3
I0
I16
I4
I-1
I-2
I0
I-1
tp1940
a(I-2
I-3
I-3
I-4
I1
I-3
I-1
I-1
tp1941
a(I-1
I-4
I-5
I0
I1
I0
I0
I-1
tp1942
a(I0
I0
I-1
I-4
I-2
I-1
I-1
I-1
tp1943
a(I-1
I-1
I-1
I6
I1
I-1
I-2
I-1
tp1944
a(I0
I-4
I3
I-2
I2
I5
I-2
I-1
tp1945
a(I-7
I-1
I-20
I-3
I1
I1
I2
I-2
tp1946
a(I2
I-1
I-4
I0
I-6
I-4
I-2
I-2
tp1947
a(I0
I2
I8
I-2
I-3
I-5
I-1
I-2
tp1948
a(I-2
I-4
I-13
I0
I-2
I-4
I-3
I-1
tp1949
a(I1
I1
I-3
I0
I0
I4
I1
I0
tp1950
a(I-3
I2
I-4
I-2
I4
I1
I-1
I0
tp1951
a(I-5
I-2
I2
I-1
I-5
I-2
I-1
I-2
tp1952
a(I-3
I-6
I-3
I-5
I-5
I-4
I-2
I-5
tp1953
a(I-6
I1
I4
I-2
I1
I3
I0
I0
tp1954
a(I1
I4
I10
I6
I-2
I-3
I-1
I-2
tp1955
a(I-1
I-15
I-25
I-3
I1
I6
I0
I-1
tp1956
a(I-2
I3
I18
I-1
I2
I-5
I0
I0
tp1957
a(I0
I2
I24
I8
I1
I4
I0
I1
tp1958
a(I0
I-1
I16
I1
I-1
I0
I1
I-1
tp1959
a(I0
I2
I-16
I-6
I-5
I-6
I-2
I-3
tp1960
a(I-5
I-1
I-6
I-1
I-4
I0
I-2
I-3
tp1961
a(I2
I0
I-13
I-2
I1
I-6
I-3
I-2
tp1962
a(I0
I3
I17
I1
I0
I0
I1
I1
tp1963
a(I1
I2
I-3
I0
I3
I1
I0
I2
tp1964
a(I-1
I-2
I-6
I-5
I-6
I0
I-3
I-1
tp1965
a(I-1
I-1
I19
I3
I2
I-5
I-1
I-2
tp1966
a(I0
I-1
I-17
I-9
I-7
I-3
I-2
I-1
tp1967
a(I-3
I-3
I2
I0
I-4
I-3
I-2
I0
tp1968
a(I-2
I-1
I2
I2
I3
I1
I0
I0
tp1969
a(I-2
I-5
I1
I-3
I-2
I-7
I-2
I0
tp1970
a(I0
I1
I6
I0
I-2
I0
I-1
I-1
tp1971
a(I0
I0
I0
I2
I3
I3
I0
I0
tp1972
a(I0
I-5
I-11
I-4
I-2
I-3
I-1
I-1
tp1973
a(I-2
I14
I11
I-2
I-3
I-1
I-1
I-1
tp1974
a(I2
I-4
I-4
I3
I1
I0
I-1
I-1
tp1975
a(I0
I3
I-1
I-9
I-7
I-2
I0
I0
tp1976
a(I-1
I-3
I-25
I-3
I0
I-1
I-1
I-1
tp1977
a(I0
I-3
I5
I-3
I-3
I-3
I-3
I0
tp1978
a(I1
I2
I-5
I4
I5
I5
I3
I1
tp1979
a(I-2
I-5
I-5
I2
I-1
I-3
I-1
I-3
tp1980
a(I-1
I1
I15
I-3
I-3
I1
I0
I0
tp1981
a(I-3
I4
I-1
I2
I0
I-2
I3
I1
tp1982
a(I0
I1
I-13
I-1
I-1
I0
I0
I-2
tp1983
a(I3
I-1
I5
I0
I2
I2
I0
I-1
tp1984
a(I-1
I0
I-7
I1
I0
I2
I-1
I0
tp1985
a(I-2
I-4
I-6
I-1
I-2
I-2
I-1
I-2
tp1986
a(I-4
I-1
I9
I-1
I-6
I-4
I-1
I-2
tp1987
a(I4
I1
I12
I1
I-3
I0
I-4
I-1
tp1988
a(I-1
I-4
I-4
I1
I4
I0
I-1
I0
tp1989
a(I1
I2
I-3
I3
I4
I-2
I-1
I-1
tp1990
a(I-3
I-2
I-10
I-5
I-1
I1
I-1
I-1
tp1991
a(I-2
I-6
I-16
I-5
I-3
I-5
I-1
I-2
tp1992
a(I-3
I-2
I-3
I-5
I-1
I1
I-1
I-3
tp1993
a(I-2
I-1
I-6
I-1
I-2
I4
I0
I-1
tp1994
a(I1
I3
I-5
I-4
I-2
I-3
I-1
I-1
tp1995
a(I-3
I-3
I-31
I-7
I-2
I0
I-1
I-1
tp1996
a(I-1
I-2
I11
I-3
I0
I0
I0
I0
tp1997
a(I0
I2
I1
I1
I3
I-2
I0
I0
tp1998
a(I-2
I-1
I0
I-2
I-6
I-4
I-2
I-1
tp1999
a(I0
I1
I-3
I1
I0
I4
I0
I0
tp2000
a(I1
I1
I19
I2
I-1
I2
I-2
I-1
tp2001
a(I-1
I1
I-8
I-2
I3
I-2
I-1
I-4
tp2002
a(I3
I-1
I-7
I5
I6
I3
I1
I0
tp2003
a(I-4
I-3
I-18
I-12
I-7
I-10
I-5
I-2
tp2004
a(I-2
I-13
I-12
I-1
I0
I1
I-1
I-2
tp2005
a(I1
I-6
I-5
I-4
I-2
I-2
I0
I-2
tp2006
a(I0
I1
I4
I2
I-2
I-2
I-1
I-1
tp2007
a(I-1
I0
I6
I-4
I1
I1
I1
I0
tp2008
a(I-2
I0
I2
I-3
I-1
I-2
I-1
I-2
tp2009
a(I0
I-1
I-5
I-2
I-3
I-1
I0
I-1
tp2010
a(I-1
I-2
I-13
I1
I2
I-1
I0
I0
tp2011
a(I-2
I3
I5
I-1
I-3
I-4
I-2
I-1
tp2012
a(I-3
I-4
I12
I-4
I-6
I1
I-2
I-2
tp2013
a(I-3
I-4
I-6
I1
I2
I3
I-2
I-2
tp2014
a(I1
I3
I-7
I-1
I-5
I-4
I-1
I1
tp2015
a(I-2
I-4
I-9
I-2
I4
I1
I-1
I0
tp2016
a(I3
I2
I-6
I0
I4
I0
I1
I3
tp2017
a(I-2
I-3
I0
I-1
I-6
I-8
I-1
I-2
tp2018
a(I1
I-1
I-14
I-4
I0
I2
I0
I0
tp2019
a(I-2
I-1
I0
I-3
I-2
I-4
I-1
I-2
tp2020
a(I-3
I1
I-5
I1
I-2
I-3
I-2
I-2
tp2021
a(I5
I4
I12
I2
I2
I3
I0
I1
tp2022
a(I-1
I-1
I-5
I3
I0
I-5
I-1
I-1
tp2023
a(I0
I0
I-11
I1
I0
I4
I-1
I2
tp2024
a(I-1
I-3
I3
I-4
I-4
I-5
I-2
I1
tp2025
a(I0
I0
I3
I-2
I1
I3
I0
I0
tp2026
a(I-1
I-1
I0
I-3
I-4
I-2
I-4
I0
tp2027
a(I-1
I0
I-2
I-3
I-4
I-1
I-2
I-1
tp2028
a(I-2
I1
I13
I2
I0
I2
I0
I-2
tp2029
a(I-2
I1
I-7
I-5
I-1
I-2
I0
I-2
tp2030
a(I-3
I1
I-9
I0
I-1
I6
I2
I-2
tp2031
a(I3
I2
I12
I2
I5
I2
I1
I-1
tp2032
a(I0
I-1
I-11
I2
I2
I-2
I-2
I-3
tp2033
a(I0
I0
I15
I-2
I-2
I-1
I-2
I0
tp2034
a(I-1
I-1
I-3
I-6
I0
I-6
I-1
I-1
tp2035
a(I0
I-1
I-10
I1
I-1
I6
I0
I0
tp2036
a(I1
I-2
I6
I-3
I-7
I-8
I-3
I0
tp2037
a(I-3
I1
I-7
I-2
I2
I1
I0
I-1
tp2038
a(I-1
I-1
I5
I4
I-4
I-3
I-3
I-3
tp2039
a(I-2
I-2
I-14
I-5
I-2
I-1
I0
I-3
tp2040
a(I1
I-2
I-2
I-2
I2
I2
I1
I-1
tp2041
a(I-1
I1
I7
I4
I-1
I-2
I-4
I-1
tp2042
a(I1
I-3
I-5
I-2
I-1
I1
I0
I-1
tp2043
a(I-2
I-6
I0
I4
I1
I4
I-2
I-1
tp2044
a(I0
I-4
I-7
I-6
I-2
I-4
I-2
I-1
tp2045
a(I-3
I-3
I8
I-5
I-7
I-9
I-2
I-2
tp2046
a(I-2
I1
I2
I-1
I-2
I-4
I-1
I0
tp2047
a(I0
I2
I-9
I-1
I1
I4
I1
I-1
tp2048
a(I-3
I-3
I-8
I-3
I0
I-1
I-3
I-1
tp2049
a(I-1
I1
I3
I-1
I0
I-2
I-1
I-1
tp2050
a(I-1
I-10
I-11
I-5
I2
I0
I-1
I1
tp2051
a(I0
I-2
I1
I-4
I-3
I-5
I-1
I0
tp2052
a(I-3
I-2
I-20
I-7
I-3
I-4
I-3
I-3
tp2053
a(I1
I4
I44
I11
I0
I-5
I-1
I0
tp2054
a(I0
I1
I-12
I0
I2
I1
I-1
I0
tp2055
a(I-3
I-4
I-11
I2
I1
I-2
I0
I1
tp2056
aasS'wave-in'
p2057
(lp2058
(lp2059
(I0
I-1
I-11
I0
I0
I-3
I0
I-1
tp2060
a(I0
I-1
I-6
I0
I1
I-1
I-2
I-2
tp2061
a(I0
I0
I3
I2
I1
I2
I-2
I1
tp2062
a(I0
I-3
I-7
I-1
I1
I-2
I-1
I-1
tp2063
a(I-1
I1
I4
I-3
I-2
I-3
I-1
I-2
tp2064
a(I-1
I0
I-2
I2
I0
I-1
I-1
I0
tp2065
a(I-1
I0
I-3
I0
I1
I0
I-3
I-2
tp2066
a(I-2
I0
I6
I-2
I-1
I-3
I-2
I-1
tp2067
a(I-1
I-3
I-7
I-2
I-2
I-3
I0
I-2
tp2068
a(I1
I2
I23
I2
I1
I-1
I-2
I0
tp2069
a(I-1
I-2
I-9
I-3
I-2
I1
I1
I0
tp2070
a(I1
I2
I0
I1
I-1
I1
I0
I-1
tp2071
a(I2
I0
I8
I1
I0
I-2
I0
I-1
tp2072
a(I-2
I-3
I-16
I-1
I0
I2
I-2
I-4
tp2073
a(I-1
I0
I10
I-2
I0
I-3
I-4
I0
tp2074
a(I1
I-1
I-19
I-2
I-1
I1
I-1
I-1
tp2075
a(I-1
I-1
I17
I1
I-1
I-1
I0
I-1
tp2076
a(I-1
I-2
I-14
I-3
I-1
I-2
I0
I-1
tp2077
a(I-2
I-2
I22
I-2
I-3
I-3
I-3
I0
tp2078
a(I-1
I-1
I-19
I-2
I0
I-1
I0
I-1
tp2079
a(I0
I2
I-14
I-1
I-3
I-2
I-1
I-1
tp2080
a(I-1
I-4
I-4
I-1
I-4
I-1
I-2
I-2
tp2081
a(I-2
I-2
I-3
I-1
I-1
I-1
I-1
I-3
tp2082
a(I-1
I2
I39
I2
I-2
I-2
I1
I-1
tp2083
a(I-4
I-8
I-27
I-5
I-2
I-1
I-1
I-2
tp2084
a(I-2
I-3
I13
I2
I-1
I-1
I0
I-1
tp2085
a(I-2
I-2
I-6
I-1
I-1
I-2
I-1
I-2
tp2086
a(I-3
I-5
I-15
I-4
I-4
I-1
I0
I-3
tp2087
a(I-2
I-3
I-22
I-4
I-5
I-6
I-2
I-2
tp2088
a(I-2
I0
I14
I2
I1
I-2
I-2
I-2
tp2089
a(I-1
I0
I6
I2
I1
I1
I0
I-3
tp2090
a(I-2
I-1
I-13
I-1
I-2
I-4
I-2
I-1
tp2091
a(I-2
I0
I7
I2
I-2
I-1
I-1
I-2
tp2092
a(I-2
I-2
I-21
I-4
I-6
I0
I-2
I-2
tp2093
a(I-1
I-1
I5
I0
I0
I1
I-2
I-1
tp2094
a(I-1
I0
I-1
I2
I4
I-2
I-2
I-1
tp2095
a(I-1
I0
I0
I0
I0
I1
I0
I-1
tp2096
a(I-1
I-1
I-1
I0
I1
I4
I1
I1
tp2097
a(I0
I-3
I-10
I-4
I-5
I-8
I-2
I0
tp2098
a(I-3
I-3
I-1
I-2
I-2
I-4
I-1
I1
tp2099
a(I-1
I0
I-2
I-3
I2
I0
I3
I2
tp2100
a(I0
I1
I-4
I-1
I-1
I1
I0
I-1
tp2101
a(I0
I0
I5
I2
I6
I5
I0
I-3
tp2102
a(I-2
I-3
I-9
I-3
I-4
I-1
I-2
I0
tp2103
a(I-1
I0
I-3
I0
I0
I0
I-1
I-1
tp2104
a(I-1
I0
I-2
I0
I2
I0
I1
I0
tp2105
a(I-1
I-3
I0
I0
I0
I-1
I-2
I0
tp2106
a(I0
I-1
I1
I1
I-2
I-1
I0
I0
tp2107
a(I0
I0
I-4
I-2
I-4
I-3
I-1
I-1
tp2108
a(I0
I-4
I-25
I-6
I-2
I-2
I-2
I-2
tp2109
a(I0
I4
I41
I5
I4
I6
I0
I-3
tp2110
a(I0
I0
I9
I1
I0
I-1
I0
I1
tp2111
a(I0
I0
I6
I-1
I-3
I-2
I-1
I-1
tp2112
a(I-1
I2
I-6
I-1
I-3
I0
I-2
I-2
tp2113
a(I-2
I-2
I13
I-2
I-2
I-1
I0
I-2
tp2114
a(I0
I-1
I-6
I0
I2
I2
I2
I0
tp2115
a(I2
I2
I2
I4
I4
I0
I1
I0
tp2116
a(I0
I-3
I-14
I-4
I-5
I-2
I0
I0
tp2117
a(I1
I-1
I8
I1
I2
I0
I-1
I-1
tp2118
a(I-2
I-2
I2
I-2
I-3
I4
I8
I-1
tp2119
a(I-1
I-5
I-30
I-4
I1
I-1
I-2
I-1
tp2120
a(I-1
I1
I6
I0
I0
I-2
I-3
I-1
tp2121
a(I-3
I-5
I-15
I-6
I-5
I-2
I-3
I-1
tp2122
a(I-2
I-2
I2
I-2
I-2
I0
I-3
I-1
tp2123
a(I-1
I0
I1
I0
I-1
I0
I1
I-1
tp2124
a(I2
I1
I13
I1
I-1
I-6
I-3
I-1
tp2125
a(I-2
I-1
I-19
I-3
I0
I-3
I-2
I-3
tp2126
a(I1
I0
I18
I1
I0
I-1
I-1
I0
tp2127
a(I-1
I-3
I1
I-4
I-4
I-7
I1
I0
tp2128
a(I0
I0
I1
I-2
I-1
I0
I1
I-2
tp2129
a(I-1
I-8
I-21
I-4
I-3
I1
I-1
I0
tp2130
a(I0
I4
I16
I1
I1
I2
I4
I0
tp2131
a(I0
I0
I-17
I0
I1
I-6
I-10
I1
tp2132
a(I0
I-1
I1
I-3
I-2
I5
I0
I0
tp2133
a(I-1
I-4
I-14
I-3
I3
I-1
I5
I1
tp2134
a(I-3
I-4
I5
I-3
I-7
I-6
I-1
I0
tp2135
a(I-1
I-1
I18
I0
I-2
I-1
I-4
I-3
tp2136
a(I-3
I-2
I-3
I-3
I-1
I0
I-1
I-10
tp2137
a(I13
I2
I-3
I-1
I-1
I4
I-4
I13
tp2138
a(I-3
I-2
I-15
I-4
I-2
I6
I10
I-5
tp2139
a(I-6
I-4
I0
I-2
I-4
I-10
I-11
I-32
tp2140
a(I6
I1
I-3
I0
I0
I4
I-12
I0
tp2141
a(I-9
I-6
I-3
I-2
I-2
I-3
I-9
I32
tp2142
a(I-3
I-2
I-4
I2
I1
I-2
I5
I-21
tp2143
a(I4
I2
I1
I1
I2
I14
I32
I33
tp2144
a(I6
I-6
I-13
I-5
I-2
I-20
I-72
I16
tp2145
a(I-12
I-8
I1
I1
I6
I57
I84
I-54
tp2146
a(I21
I10
I-7
I-2
I1
I-29
I23
I94
tp2147
a(I-18
I0
I1
I-2
I5
I28
I-78
I-72
tp2148
a(I7
I-3
I2
I4
I3
I1
I65
I-14
tp2149
a(I-2
I5
I1
I0
I-2
I-4
I-63
I4
tp2150
a(I-29
I-25
I6
I7
I8
I18
I47
I-18
tp2151
a(I7
I-45
I-11
I-3
I-5
I-17
I-27
I21
tp2152
a(I14
I12
I11
I7
I15
I30
I49
I-31
tp2153
a(I14
I37
I-2
I-3
I-7
I1
I14
I46
tp2154
a(I-4
I-53
I-14
I-13
I-12
I-44
I-15
I-23
tp2155
a(I19
I4
I7
I8
I15
I35
I28
I47
tp2156
a(I-2
I-27
I-11
I-6
I-7
I-35
I18
I-20
tp2157
a(I-13
I-12
I2
I-3
I-2
I2
I43
I1
tp2158
a(I9
I6
I5
I3
I1
I26
I-51
I22
tp2159
a(I-7
I17
I0
I1
I1
I-5
I-6
I-20
tp2160
a(I-5
I-3
I3
I-4
I-1
I97
I5
I15
tp2161
a(I-7
I-79
I2
I-5
I-8
I-11
I-26
I-13
tp2162
a(I14
I103
I20
I1
I0
I-52
I-80
I0
tp2163
a(I19
I17
I11
I0
I6
I72
I65
I-3
tp2164
a(I0
I7
I-11
I-1
I-4
I-63
I-60
I-29
tp2165
a(I-1
I37
I-5
I-8
I-15
I-7
I27
I9
tp2166
a(I12
I11
I14
I9
I20
I18
I-58
I2
tp2167
a(I-13
I47
I20
I-3
I-9
I5
I-10
I-8
tp2168
a(I2
I21
I-1
I5
I8
I35
I54
I23
tp2169
a(I7
I30
I28
I-1
I-7
I-53
I-54
I-15
tp2170
a(I10
I99
I37
I14
I7
I-18
I17
I23
tp2171
a(I-40
I-128
I-50
I-21
I-23
I-128
I-110
I-27
tp2172
a(I16
I-16
I30
I15
I10
I93
I-70
I-1
tp2173
a(I-35
I-37
I-32
I-16
I-21
I68
I34
I-45
tp2174
a(I18
I35
I-25
I-7
I2
I-67
I-19
I75
tp2175
a(I31
I-60
I17
I23
I32
I110
I27
I44
tp2176
a(I-13
I2
I28
I10
I8
I-45
I16
I-3
tp2177
a(I8
I-30
I0
I5
I23
I-42
I-105
I10
tp2178
a(I4
I-128
I-3
I11
I19
I10
I122
I13
tp2179
a(I0
I25
I15
I3
I-3
I-42
I44
I-1
tp2180
a(I13
I86
I14
I-1
I-20
I-11
I103
I5
tp2181
a(I-11
I-36
I-6
I0
I20
I-43
I-106
I-3
tp2182
a(I17
I-44
I0
I14
I36
I49
I50
I21
tp2183
a(I-16
I-13
I10
I-3
I1
I-3
I12
I-12
tp2184
a(I33
I48
I16
I12
I19
I75
I-19
I12
tp2185
a(I2
I-31
I-3
I-1
I8
I4
I-1
I1
tp2186
a(I-12
I14
I-2
I4
I-4
I-33
I8
I-19
tp2187
a(I-1
I11
I14
I-6
I-9
I20
I43
I20
tp2188
a(I10
I2
I-12
I-9
I3
I23
I-21
I-11
tp2189
a(I-2
I28
I-9
I-6
I-15
I7
I-9
I2
tp2190
a(I-5
I-2
I8
I5
I-1
I-118
I-12
I-11
tp2191
a(I-18
I-31
I-23
I-10
I-22
I62
I-2
I-25
tp2192
a(I-6
I55
I3
I9
I59
I-85
I72
I-5
tp2193
a(I2
I42
I-1
I2
I-59
I-11
I30
I15
tp2194
a(I-19
I-59
I-47
I-50
I11
I-10
I-8
I-34
tp2195
a(I-1
I-20
I-19
I1
I-9
I111
I30
I-10
tp2196
a(I3
I-45
I14
I10
I32
I-23
I55
I26
tp2197
a(I-10
I37
I-21
I-4
I9
I14
I94
I-14
tp2198
a(I-1
I0
I3
I-5
I-47
I42
I-37
I-49
tp2199
a(I-2
I35
I-12
I-11
I-21
I-117
I-44
I25
tp2200
a(I-2
I-95
I20
I6
I34
I53
I1
I-17
tp2201
a(I6
I22
I24
I9
I3
I71
I-13
I10
tp2202
a(I-34
I-84
I-45
I-14
I-40
I-128
I-60
I-28
tp2203
a(I-6
I-28
I-8
I-10
I-18
I15
I-2
I-21
tp2204
a(I2
I-18
I15
I34
I34
I-58
I-13
I21
tp2205
a(I-3
I39
I18
I13
I33
I-39
I-17
I-11
tp2206
a(I-3
I-24
I-4
I-11
I-23
I38
I28
I27
tp2207
a(I5
I-50
I1
I3
I4
I-22
I-3
I0
tp2208
a(I-4
I-15
I-4
I-13
I-1
I25
I-54
I-16
tp2209
a(I12
I-17
I-11
I4
I6
I42
I57
I1
tp2210
a(I-15
I-37
I4
I-4
I-25
I-40
I-73
I-15
tp2211
a(I-12
I13
I10
I-1
I-29
I-21
I-27
I-5
tp2212
a(I-2
I-19
I9
I6
I36
I1
I-11
I-29
tp2213
a(I-2
I16
I2
I2
I-3
I60
I37
I6
tp2214
a(I30
I123
I-8
I-3
I-21
I51
I-58
I-5
tp2215
a(I-20
I-73
I1
I-1
I15
I-119
I-68
I-26
tp2216
a(I23
I127
I27
I18
I22
I52
I15
I-11
tp2217
a(I-1
I-67
I-20
I-6
I-16
I14
I43
I2
tp2218
a(I-27
I-116
I-18
I-12
I-2
I61
I23
I-6
tp2219
a(I0
I18
I7
I17
I36
I-43
I10
I6
tp2220
a(I16
I-31
I16
I-11
I-18
I-22
I-10
I11
tp2221
a(I-10
I-5
I-9
I-4
I-9
I-21
I39
I-3
tp2222
a(I-3
I-57
I-10
I-4
I7
I-30
I16
I-4
tp2223
a(I11
I61
I22
I18
I8
I48
I-8
I4
tp2224
a(I0
I-2
I-8
I1
I13
I-16
I-5
I-3
tp2225
a(I2
I33
I2
I-2
I-15
I20
I3
I5
tp2226
a(I5
I-29
I3
I5
I10
I-10
I-79
I-16
tp2227
a(I-8
I-39
I-8
I10
I25
I57
I14
I12
tp2228
a(I9
I-17
I6
I0
I16
I-29
I31
I0
tp2229
a(I2
I-32
I-18
I-8
I-22
I13
I13
I3
tp2230
a(I7
I18
I2
I-3
I-20
I-27
I22
I8
tp2231
a(I-9
I-32
I-9
I-10
I-2
I21
I16
I-13
tp2232
a(I7
I-13
I-5
I0
I-6
I-15
I19
I13
tp2233
a(I-2
I-10
I-5
I2
I24
I35
I31
I1
tp2234
a(I2
I21
I5
I10
I8
I1
I16
I10
tp2235
a(I9
I17
I5
I6
I7
I3
I-11
I3
tp2236
a(I-5
I-27
I-8
I7
I19
I21
I26
I6
tp2237
a(I-8
I-20
I-3
I-1
I-6
I8
I-34
I-17
tp2238
a(I-17
I-22
I-5
I-8
I-17
I-73
I-49
I-16
tp2239
a(I10
I-5
I-9
I-6
I-2
I43
I78
I25
tp2240
a(I2
I21
I-5
I2
I-2
I-7
I9
I6
tp2241
a(I1
I-32
I12
I6
I8
I5
I-6
I-3
tp2242
a(I1
I9
I4
I7
I16
I34
I8
I6
tp2243
a(I1
I3
I-12
I-11
I6
I-2
I0
I-3
tp2244
a(I-8
I19
I-1
I4
I5
I9
I10
I3
tp2245
a(I-6
I-5
I10
I0
I-6
I1
I-9
I-5
tp2246
a(I3
I-17
I-3
I-4
I6
I-2
I-12
I0
tp2247
a(I-1
I-6
I2
I-3
I-10
I-6
I13
I0
tp2248
a(I-3
I-4
I-13
I-15
I-13
I-7
I-34
I-5
tp2249
a(I-4
I13
I-4
I3
I-2
I7
I-11
I-5
tp2250
a(I0
I8
I7
I4
I3
I-2
I11
I8
tp2251
a(I2
I0
I-2
I-7
I-10
I-7
I-15
I1
tp2252
a(I-6
I7
I-6
I0
I-2
I5
I10
I-6
tp2253
a(I-1
I7
I18
I8
I3
I-5
I-5
I1
tp2254
a(I0
I8
I9
I11
I-4
I0
I15
I2
tp2255
a(I3
I7
I-1
I-2
I-4
I-11
I-10
I-5
tp2256
a(I0
I0
I-1
I-2
I-4
I5
I10
I-2
tp2257
a(I-3
I-8
I-15
I-10
I-1
I-3
I5
I-3
tp2258
a(I7
I-7
I-2
I-2
I4
I3
I2
I-1
tp2259
a(I4
I-3
I1
I7
I0
I-4
I-20
I-2
tp2260
a(I6
I34
I-2
I-2
I-1
I4
I12
I6
tp2261
a(I-9
I-5
I-8
I1
I-6
I-4
I-10
I-9
tp2262
a(I12
I-18
I-8
I4
I7
I6
I-4
I-3
tp2263
a(I-5
I5
I-3
I-26
I1
I-5
I-1
I-3
tp2264
a(I5
I19
I20
I25
I-1
I3
I14
I4
tp2265
a(I-2
I-5
I3
I5
I-7
I-11
I-15
I-4
tp2266
a(I-8
I12
I-8
I-14
I-9
I11
I-4
I-3
tp2267
a(I0
I-1
I28
I1
I-6
I2
I-8
I-2
tp2268
a(I-4
I0
I-6
I-5
I3
I10
I4
I-3
tp2269
a(I-2
I-5
I-14
I-2
I1
I-3
I1
I-3
tp2270
a(I-3
I-4
I-2
I-1
I-4
I-6
I6
I1
tp2271
a(I3
I26
I6
I2
I-4
I-6
I-4
I1
tp2272
a(I-1
I4
I-4
I-1
I-1
I-3
I17
I2
tp2273
a(I1
I2
I13
I-1
I5
I1
I-16
I1
tp2274
a(I-1
I7
I-1
I-3
I2
I-1
I-6
I-5
tp2275
a(I0
I-13
I-16
I-3
I2
I-3
I-2
I-3
tp2276
a(I-3
I0
I-7
I-7
I-6
I-4
I2
I-1
tp2277
a(I-1
I-1
I1
I-1
I3
I-1
I-4
I-3
tp2278
a(I1
I4
I-10
I19
I0
I-2
I-2
I2
tp2279
a(I2
I15
I34
I1
I-2
I1
I7
I4
tp2280
a(I-2
I3
I0
I1
I5
I0
I2
I-3
tp2281
a(I8
I14
I-7
I-10
I-7
I-3
I-4
I-2
tp2282
a(I-1
I-21
I7
I-5
I-1
I-2
I-13
I-4
tp2283
a(I-3
I-6
I13
I-1
I5
I3
I-1
I-2
tp2284
a(I-3
I-1
I-11
I-13
I6
I6
I3
I0
tp2285
a(I-5
I5
I-5
I-6
I-5
I-9
I0
I-2
tp2286
a(I-3
I-7
I5
I8
I3
I2
I3
I-1
tp2287
a(I-3
I4
I-16
I-8
I-4
I-2
I-4
I0
tp2288
a(I-8
I0
I34
I3
I-2
I0
I1
I-3
tp2289
a(I3
I9
I9
I4
I6
I1
I-2
I0
tp2290
a(I-1
I4
I-13
I-3
I5
I-1
I-1
I0
tp2291
a(I-1
I3
I16
I-5
I0
I-1
I-2
I0
tp2292
a(I1
I-1
I-7
I-8
I0
I0
I0
I-1
tp2293
a(I-2
I-1
I3
I-6
I2
I-1
I-3
I-2
tp2294
a(I1
I-1
I-3
I4
I0
I1
I-3
I-1
tp2295
a(I0
I-3
I7
I-12
I-5
I-5
I-1
I-1
tp2296
a(I2
I8
I14
I3
I-6
I-4
I-1
I0
tp2297
a(I-4
I-11
I54
I-3
I3
I3
I-1
I-3
tp2298
a(I-5
I-14
I-85
I-12
I-4
I-5
I-1
I-2
tp2299
a(I-6
I-25
I-24
I-14
I-6
I-11
I-3
I-4
tp2300
a(I-1
I1
I34
I3
I-12
I-2
I-3
I-1
tp2301
a(I-2
I0
I-8
I-5
I4
I0
I0
I1
tp2302
a(I-1
I-2
I17
I6
I5
I0
I2
I-1
tp2303
a(I-1
I1
I4
I8
I8
I1
I2
I3
tp2304
a(I-2
I-6
I-42
I-22
I-2
I0
I-2
I-3
tp2305
a(I0
I-5
I23
I2
I0
I-1
I0
I-2
tp2306
a(I-9
I-20
I-9
I-10
I-13
I-9
I-6
I-5
tp2307
a(I0
I-12
I-38
I-11
I-6
I-5
I-1
I-1
tp2308
a(I-3
I-5
I28
I3
I-3
I1
I-1
I-3
tp2309
a(I3
I3
I-10
I-1
I-4
I-3
I-11
I-1
tp2310
a(I-7
I-20
I9
I-1
I0
I-3
I7
I-2
tp2311
a(I-4
I-22
I-7
I1
I0
I1
I-2
I-1
tp2312
a(I-2
I-6
I6
I1
I3
I0
I-1
I-3
tp2313
a(I2
I20
I16
I5
I0
I3
I1
I1
tp2314
a(I2
I7
I-20
I2
I-3
I-3
I-2
I3
tp2315
a(I-4
I-7
I7
I3
I4
I2
I2
I1
tp2316
a(I-2
I-8
I-16
I-8
I-1
I0
I-1
I-4
tp2317
a(I-6
I-10
I-9
I-18
I-18
I-10
I-8
I-4
tp2318
a(I0
I1
I-9
I3
I0
I-2
I1
I-1
tp2319
a(I-4
I-9
I-11
I-1
I0
I0
I1
I-1
tp2320
a(I3
I8
I-6
I-2
I2
I-1
I-1
I0
tp2321
a(I-1
I-9
I24
I2
I0
I0
I0
I-2
tp2322
a(I2
I-1
I-8
I2
I-1
I1
I-1
I-2
tp2323
a(I-1
I-4
I-45
I-2
I-4
I1
I0
I0
tp2324
a(I0
I-4
I5
I5
I2
I4
I-2
I0
tp2325
a(I2
I12
I16
I11
I4
I-5
I0
I2
tp2326
a(I-5
I-13
I-35
I-15
I-6
I-2
I-1
I-2
tp2327
a(I-1
I4
I38
I-6
I-4
I-5
I-1
I0
tp2328
a(I7
I4
I3
I-2
I-5
I0
I-1
I1
tp2329
a(I-3
I-2
I-20
I1
I5
I1
I0
I-1
tp2330
a(I0
I-5
I30
I4
I-3
I1
I0
I0
tp2331
a(I-1
I6
I3
I-6
I-9
I-4
I-2
I-1
tp2332
a(I-5
I-5
I-16
I-10
I-4
I-4
I-1
I0
tp2333
a(I-1
I-3
I-5
I3
I2
I-2
I1
I1
tp2334
a(I2
I8
I11
I0
I2
I3
I1
I-1
tp2335
a(I-1
I0
I16
I2
I0
I-4
I0
I-1
tp2336
a(I1
I-1
I-11
I3
I2
I-2
I-2
I1
tp2337
a(I-1
I0
I28
I1
I-1
I0
I-2
I1
tp2338
a(I-4
I-9
I-27
I-3
I-2
I-5
I-3
I-4
tp2339
a(I-2
I-5
I-19
I-3
I-1
I1
I-1
I-3
tp2340
a(I1
I6
I12
I-1
I-3
I-2
I0
I-1
tp2341
a(I-2
I-4
I2
I2
I8
I7
I1
I-1
tp2342
a(I-1
I0
I-1
I0
I2
I1
I0
I0
tp2343
a(I-3
I-4
I-1
I1
I-1
I-4
I-3
I-1
tp2344
a(I-6
I-2
I-10
I-5
I-4
I-4
I-1
I-3
tp2345
a(I-4
I-2
I-2
I-1
I-3
I-4
I1
I0
tp2346
a(I3
I5
I17
I-1
I-3
I-1
I-4
I-3
tp2347
a(I-2
I-6
I-15
I-2
I-7
I-1
I-1
I0
tp2348
a(I-1
I1
I29
I3
I2
I1
I1
I0
tp2349
a(I0
I2
I-7
I1
I2
I0
I-1
I1
tp2350
a(I-1
I-1
I1
I0
I-1
I-1
I-1
I-1
tp2351
a(I-2
I-5
I-1
I7
I3
I1
I-2
I-4
tp2352
a(I0
I-9
I-18
I-12
I-4
I-3
I-1
I-1
tp2353
a(I-1
I5
I38
I-3
I-2
I0
I-2
I-2
tp2354
a(I0
I-5
I10
I2
I-1
I3
I-2
I0
tp2355
a(I0
I5
I7
I4
I0
I-2
I-3
I-1
tp2356
a(I-1
I5
I0
I2
I3
I0
I0
I0
tp2357
a(I0
I0
I-16
I-4
I-5
I-3
I1
I1
tp2358
a(I0
I3
I6
I2
I4
I3
I-2
I-1
tp2359
a(I-2
I-9
I-4
I-6
I-4
I-2
I-1
I-3
tp2360
a(I-2
I4
I13
I1
I-2
I-2
I-2
I-1
tp2361
a(I-2
I0
I0
I-1
I0
I3
I1
I-1
tp2362
a(I0
I2
I-9
I-3
I-4
I-4
I-2
I-1
tp2363
a(I-2
I-4
I4
I0
I-3
I1
I-1
I-2
tp2364
a(I-3
I0
I12
I-3
I-3
I-5
I1
I0
tp2365
a(I-1
I0
I3
I1
I4
I0
I0
I-1
tp2366
a(I-2
I-5
I5
I-7
I-10
I-5
I0
I-3
tp2367
a(I0
I0
I-4
I1
I0
I-1
I-2
I0
tp2368
a(I1
I3
I-19
I5
I2
I0
I0
I0
tp2369
a(I0
I-5
I9
I-9
I0
I0
I0
I0
tp2370
a(I-1
I-1
I-3
I3
I3
I2
I1
I-1
tp2371
a(I-3
I0
I-9
I-3
I-2
I0
I-2
I-1
tp2372
a(I2
I-6
I6
I-3
I-1
I-1
I0
I-1
tp2373
a(I0
I3
I7
I2
I0
I0
I-2
I0
tp2374
a(I-1
I-5
I-3
I-1
I0
I0
I0
I-1
tp2375
a(I1
I0
I-14
I1
I-1
I-1
I0
I1
tp2376
a(I-2
I2
I-5
I0
I-1
I4
I-1
I-1
tp2377
a(I-2
I-2
I-7
I-6
I-4
I-8
I-3
I-4
tp2378
a(I-1
I-4
I-1
I-1
I-1
I1
I-2
I-1
tp2379
a(I-1
I0
I2
I2
I1
I1
I0
I-2
tp2380
a(I0
I0
I-1
I-1
I-1
I-5
I-2
I0
tp2381
a(I-4
I0
I6
I-2
I-2
I0
I-2
I-3
tp2382
a(I0
I-2
I5
I0
I1
I0
I0
I-2
tp2383
a(I-1
I-5
I-3
I-4
I-3
I2
I0
I0
tp2384
a(I-1
I2
I-9
I0
I1
I4
I0
I-2
tp2385
a(I-2
I-2
I-8
I-2
I-3
I-2
I-3
I-1
tp2386
a(I-3
I-3
I16
I-1
I-2
I-5
I-5
I0
tp2387
a(I0
I-5
I-13
I-1
I0
I3
I-1
I0
tp2388
a(I2
I-1
I27
I3
I0
I1
I1
I1
tp2389
a(I-2
I-1
I-17
I-3
I0
I-1
I-3
I0
tp2390
a(I-2
I0
I-3
I-3
I-3
I-2
I-1
I-1
tp2391
a(I-1
I-4
I17
I4
I-1
I-1
I-2
I-2
tp2392
a(I-1
I-1
I-9
I-1
I1
I0
I-1
I1
tp2393
a(I1
I0
I10
I4
I0
I-1
I1
I0
tp2394
a(I0
I-2
I-11
I-6
I1
I1
I0
I1
tp2395
a(I0
I1
I3
I-1
I0
I-1
I0
I-1
tp2396
a(I-1
I0
I-9
I1
I-1
I1
I0
I0
tp2397
a(I-4
I2
I1
I-1
I1
I0
I-1
I-1
tp2398
a(I0
I2
I-10
I-1
I3
I5
I2
I-2
tp2399
a(I2
I-2
I38
I5
I1
I-5
I-1
I1
tp2400
a(I1
I1
I-2
I0
I2
I0
I0
I0
tp2401
a(I1
I0
I23
I1
I-4
I1
I0
I-2
tp2402
a(I-2
I-1
I-19
I-2
I-3
I-4
I-2
I-2
tp2403
a(I-3
I1
I-7
I-5
I-2
I-2
I0
I0
tp2404
a(I-4
I-2
I-5
I-1
I2
I-1
I-1
I-1
tp2405
a(I-1
I1
I-5
I-2
I2
I2
I0
I1
tp2406
a(I1
I-3
I10
I-2
I-4
I-4
I-2
I0
tp2407
a(I1
I2
I2
I2
I2
I4
I0
I-2
tp2408
a(I-3
I-5
I-21
I-5
I-3
I-3
I-3
I-2
tp2409
a(I0
I4
I44
I1
I-3
I2
I0
I0
tp2410
a(I-2
I-3
I-2
I1
I1
I2
I-1
I-2
tp2411
a(I0
I0
I-25
I-3
I-1
I0
I-1
I-2
tp2412
a(I0
I-5
I2
I-5
I1
I0
I0
I-1
tp2413
a(I-4
I-5
I-22
I-2
I-4
I1
I-2
I-2
tp2414
a(I-1
I-1
I11
I-1
I-3
I-5
I-2
I-2
tp2415
a(I1
I4
I16
I-1
I-3
I1
I-1
I-2
tp2416
a(I-2
I-14
I-15
I2
I2
I2
I0
I1
tp2417
a(I-2
I-2
I-22
I-3
I-3
I0
I-2
I-3
tp2418
a(I-1
I-4
I-9
I-2
I-3
I-1
I0
I0
tp2419
a(I4
I6
I43
I6
I5
I0
I0
I2
tp2420
a(I-1
I1
I-3
I-2
I0
I-2
I-2
I-1
tp2421
a(I-2
I-1
I0
I-1
I-5
I-6
I-2
I0
tp2422
a(I-1
I-1
I-20
I-5
I-3
I-3
I-3
I-2
tp2423
a(I0
I3
I-2
I1
I-1
I0
I1
I-2
tp2424
a(I1
I-2
I3
I-1
I-4
I-2
I-1
I0
tp2425
a(I-2
I1
I9
I-1
I-3
I-1
I0
I-1
tp2426
a(I-1
I-2
I17
I-2
I-3
I0
I-2
I-2
tp2427
a(I-4
I-4
I-16
I0
I1
I-2
I0
I1
tp2428
a(I-1
I-6
I-9
I-5
I-3
I-5
I0
I-1
tp2429
a(I-4
I-12
I-12
I1
I3
I0
I-1
I-1
tp2430
a(I-2
I-6
I-7
I-2
I-1
I-1
I-3
I-2
tp2431
a(I-3
I6
I14
I0
I0
I2
I-1
I-1
tp2432
a(I4
I-3
I-9
I-1
I-4
I-4
I-1
I-1
tp2433
a(I-1
I1
I3
I-1
I-1
I1
I0
I-2
tp2434
a(I-1
I1
I1
I0
I0
I3
I-2
I-3
tp2435
a(I0
I-1
I-15
I1
I0
I-1
I-2
I-2
tp2436
a(I1
I6
I24
I3
I0
I-3
I1
I0
tp2437
a(I0
I-1
I-4
I-2
I2
I2
I-1
I0
tp2438
a(I-2
I-6
I-20
I-4
I0
I-2
I-1
I0
tp2439
a(I1
I3
I-3
I-3
I-2
I-1
I-1
I2
tp2440
a(I-2
I-2
I-4
I-3
I-6
I-2
I-1
I-2
tp2441
a(I-2
I-4
I1
I0
I-1
I-1
I-3
I-1
tp2442
a(I-2
I-1
I-18
I-1
I2
I-1
I1
I-1
tp2443
a(I-4
I1
I3
I1
I5
I-2
I1
I1
tp2444
a(I-1
I-2
I0
I-3
I-5
I-1
I-1
I-2
tp2445
a(I-1
I-3
I-12
I-2
I-2
I0
I1
I-1
tp2446
a(I1
I-3
I-4
I-3
I1
I-1
I-2
I-1
tp2447
a(I0
I-1
I-1
I1
I-3
I-4
I0
I-2
tp2448
a(I3
I6
I18
I1
I4
I2
I-1
I-1
tp2449
a(I-2
I-2
I10
I4
I0
I-5
I-2
I-1
tp2450
a(I-1
I0
I7
I-1
I-1
I2
I0
I-1
tp2451
a(I-2
I-2
I-4
I-4
I0
I3
I-2
I-1
tp2452
a(I-2
I0
I-6
I-1
I-1
I-5
I-2
I0
tp2453
a(I-1
I3
I9
I0
I0
I0
I-1
I-1
tp2454
a(I-2
I-2
I3
I-3
I-3
I0
I0
I-2
tp2455
a(I-1
I-1
I2
I0
I1
I-2
I-2
I0
tp2456
a(I0
I5
I-3
I-3
I-1
I-3
I1
I-1
tp2457
a(I0
I-1
I-6
I-2
I-2
I1
I-2
I-2
tp2458
a(I-2
I-1
I-1
I3
I3
I2
I0
I0
tp2459
a(I0
I4
I27
I-2
I-3
I-2
I-1
I0
tp2460
a(I-2
I-2
I-12
I-1
I-2
I-5
I-1
I0
tp2461
a(I-1
I-2
I-3
I0
I-4
I0
I3
I-2
tp2462
a(I-2
I-2
I-13
I-4
I1
I-2
I-3
I-1
tp2463
a(I1
I-4
I-22
I-2
I0
I1
I-2
I-3
tp2464
a(I-1
I2
I15
I0
I-3
I-2
I-2
I-2
tp2465
a(I-1
I-2
I-8
I-2
I-1
I-3
I-1
I0
tp2466
a(I0
I-1
I-2
I1
I1
I0
I0
I0
tp2467
a(I0
I1
I2
I-1
I-1
I2
I-1
I0
tp2468
a(I-2
I-2
I-8
I-2
I0
I-2
I-1
I-1
tp2469
a(I-1
I1
I1
I0
I0
I-1
I-1
I-1
tp2470
a(I-1
I-1
I13
I2
I3
I3
I0
I0
tp2471
a(I0
I-5
I-17
I-8
I-4
I-4
I1
I1
tp2472
a(I2
I5
I18
I5
I5
I2
I0
I0
tp2473
a(I0
I0
I-3
I-1
I-1
I-1
I-1
I-2
tp2474
a(I-3
I-4
I-5
I-4
I-5
I-2
I-2
I-4
tp2475
a(I0
I-1
I11
I2
I1
I1
I-1
I0
tp2476
a(I-3
I-3
I-11
I-1
I-3
I0
I-1
I0
tp2477
a(I0
I-2
I-6
I-2
I3
I-1
I-2
I-2
tp2478
a(I-1
I-1
I-8
I-1
I-3
I1
I-1
I-1
tp2479
a(I-2
I-2
I12
I-2
I-4
I-2
I-1
I-1
tp2480
a(I0
I-2
I-7
I-3
I1
I-1
I0
I-1
tp2481
a(I-1
I2
I-1
I1
I-1
I-3
I-1
I-1
tp2482
a(I0
I0
I5
I-1
I2
I3
I1
I0
tp2483
a(I-1
I-5
I-12
I-2
I-2
I-1
I-1
I-3
tp2484
a(I0
I1
I-1
I-3
I-2
I0
I-1
I0
tp2485
a(I-1
I2
I16
I3
I0
I2
I-1
I-3
tp2486
a(I0
I-3
I-10
I-2
I0
I-1
I-1
I1
tp2487
a(I0
I3
I16
I2
I1
I1
I1
I0
tp2488
a(I-1
I-4
I-19
I-3
I-1
I0
I-2
I-1
tp2489
a(I0
I1
I-1
I-3
I-5
I-4
I-2
I0
tp2490
a(I1
I-2
I4
I3
I3
I-1
I0
I-1
tp2491
a(I1
I-3
I-4
I-2
I0
I-1
I0
I-2
tp2492
a(I-2
I3
I14
I0
I2
I2
I0
I1
tp2493
a(I-2
I1
I7
I0
I-2
I-4
I-2
I-1
tp2494
a(I1
I3
I4
I0
I-1
I1
I-1
I0
tp2495
a(I-1
I-3
I-11
I1
I0
I-1
I0
I-1
tp2496
a(I-1
I-2
I-19
I-2
I0
I-5
I-2
I-1
tp2497
a(I0
I0
I7
I0
I-2
I3
I-1
I-1
tp2498
a(I-2
I-2
I1
I-2
I0
I0
I2
I-1
tp2499
a(I-1
I4
I11
I1
I0
I0
I-2
I-2
tp2500
a(I1
I0
I0
I-3
I-2
I-3
I-2
I0
tp2501
a(I-1
I0
I16
I2
I0
I-5
I-1
I0
tp2502
a(I2
I1
I-7
I-1
I0
I1
I0
I-1
tp2503
a(I-1
I-1
I-8
I-5
I-3
I1
I1
I-2
tp2504
a(I0
I-5
I-1
I0
I-1
I-2
I0
I-2
tp2505
a(I-2
I5
I-9
I-2
I3
I-2
I0
I0
tp2506
a(I-1
I-4
I-2
I-1
I-9
I-3
I-2
I-1
tp2507
a(I1
I0
I2
I2
I2
I-1
I0
I0
tp2508
a(I-2
I-1
I-14
I-4
I-1
I-4
I-2
I-1
tp2509
a(I0
I0
I20
I3
I3
I0
I0
I2
tp2510
a(I-1
I-4
I-16
I-2
I-2
I-3
I-1
I-1
tp2511
a(I-2
I0
I9
I-1
I-1
I2
I-1
I-2
tp2512
a(I1
I-1
I18
I0
I-1
I1
I-1
I0
tp2513
a(I-2
I0
I-5
I1
I3
I1
I1
I-1
tp2514
a(I-1
I3
I-4
I0
I1
I-1
I-1
I2
tp2515
a(I-1
I0
I11
I-1
I0
I-2
I1
I0
tp2516
a(I2
I0
I2
I2
I5
I6
I0
I-1
tp2517
a(I0
I0
I4
I2
I3
I-3
I2
I2
tp2518
a(I-2
I-3
I2
I-2
I-3
I-4
I-3
I-3
tp2519
a(I-3
I-1
I-8
I-4
I-4
I-3
I-2
I-3
tp2520
a(I0
I-4
I-8
I-3
I-2
I-2
I-2
I-2
tp2521
aa(lp2522
(I1
I2
I14
I2
I2
I-1
I0
I0
tp2523
a(I-1
I-2
I8
I-1
I-5
I-1
I0
I0
tp2524
a(I-1
I3
I27
I0
I-4
I0
I-1
I-3
tp2525
a(I1
I-3
I-14
I-1
I2
I3
I0
I1
tp2526
a(I-1
I0
I-2
I-2
I-1
I1
I0
I-1
tp2527
a(I-2
I-2
I6
I2
I-2
I-6
I-2
I-1
tp2528
a(I-1
I-4
I-24
I-5
I-5
I-1
I-1
I0
tp2529
a(I-1
I3
I23
I3
I1
I2
I1
I-1
tp2530
a(I0
I-2
I-4
I-3
I-3
I-7
I-1
I-1
tp2531
a(I-2
I-2
I-9
I-2
I-2
I-1
I-3
I-2
tp2532
a(I0
I2
I6
I1
I3
I2
I-1
I-2
tp2533
a(I-1
I-1
I13
I-1
I2
I0
I-2
I-2
tp2534
a(I1
I1
I9
I2
I0
I4
I-2
I1
tp2535
a(I-1
I-4
I-23
I-2
I-1
I-2
I-3
I-1
tp2536
a(I-1
I-1
I2
I1
I1
I1
I2
I1
tp2537
a(I-1
I0
I-11
I-2
I1
I5
I1
I0
tp2538
a(I-2
I-2
I3
I-1
I0
I-2
I-1
I-2
tp2539
a(I0
I2
I8
I-2
I-6
I-6
I0
I0
tp2540
a(I-2
I-2
I-8
I-2
I1
I0
I-2
I-2
tp2541
a(I-1
I1
I8
I3
I1
I-2
I-1
I-2
tp2542
a(I1
I3
I8
I0
I-3
I-2
I1
I-1
tp2543
a(I-1
I-1
I-1
I0
I-1
I-2
I-1
I-1
tp2544
a(I-2
I-2
I-21
I-5
I-2
I-1
I0
I-1
tp2545
a(I0
I-3
I-9
I0
I2
I0
I-1
I-1
tp2546
a(I-2
I-2
I4
I0
I-4
I0
I-1
I-1
tp2547
a(I2
I-2
I-10
I-2
I0
I-1
I1
I1
tp2548
a(I-1
I-2
I-4
I-4
I2
I1
I-3
I-1
tp2549
a(I0
I3
I25
I2
I-2
I-4
I-2
I-1
tp2550
a(I-2
I1
I11
I0
I-3
I0
I-2
I-1
tp2551
a(I-1
I-2
I-35
I-1
I-2
I0
I-1
I0
tp2552
a(I-1
I1
I25
I1
I-2
I0
I-1
I0
tp2553
a(I0
I-2
I-26
I-2
I0
I-2
I0
I0
tp2554
a(I0
I1
I27
I1
I-1
I1
I1
I-1
tp2555
a(I0
I-1
I-1
I-3
I0
I1
I-2
I-1
tp2556
a(I-1
I-2
I-6
I0
I-1
I0
I-1
I-1
tp2557
a(I1
I-1
I-13
I-2
I2
I0
I1
I1
tp2558
a(I-1
I0
I-6
I-1
I-4
I-4
I-1
I-1
tp2559
a(I-1
I-5
I-13
I-5
I0
I-4
I-2
I-1
tp2560
a(I-2
I1
I20
I-1
I-2
I-2
I-1
I-1
tp2561
a(I0
I-1
I3
I2
I1
I-1
I-1
I-2
tp2562
a(I0
I4
I2
I2
I1
I2
I0
I-1
tp2563
a(I1
I-3
I8
I1
I0
I0
I-2
I0
tp2564
a(I-3
I-3
I-14
I-3
I-1
I-2
I-1
I-3
tp2565
a(I-1
I-1
I-1
I-2
I-3
I-3
I-4
I-3
tp2566
a(I-1
I-3
I-5
I-1
I-1
I-4
I-1
I-1
tp2567
a(I-3
I0
I-1
I-4
I-6
I-5
I-3
I-3
tp2568
a(I-1
I-1
I-5
I1
I1
I-2
I0
I1
tp2569
a(I-2
I-4
I-7
I-2
I-3
I0
I-2
I-1
tp2570
a(I0
I1
I6
I-1
I7
I1
I-1
I1
tp2571
a(I-2
I-6
I-10
I-2
I-4
I0
I-2
I-3
tp2572
a(I0
I0
I2
I-3
I-5
I-2
I-2
I-1
tp2573
a(I-1
I1
I-9
I-3
I-2
I-1
I0
I-1
tp2574
a(I0
I-1
I-1
I-1
I-2
I-7
I-2
I-2
tp2575
a(I-2
I-1
I-1
I-2
I-2
I-3
I-1
I-2
tp2576
a(I-1
I0
I-12
I-3
I-2
I2
I-2
I-3
tp2577
a(I-1
I0
I7
I1
I1
I-2
I-1
I-1
tp2578
a(I0
I2
I9
I0
I-2
I1
I-1
I1
tp2579
a(I-1
I-2
I-12
I-1
I-2
I1
I-1
I-1
tp2580
a(I-2
I2
I10
I-2
I-3
I-4
I-2
I-3
tp2581
a(I-1
I-1
I-3
I2
I4
I0
I0
I0
tp2582
a(I0
I1
I-2
I0
I2
I-2
I-2
I-2
tp2583
a(I-2
I-5
I-7
I-3
I-3
I-4
I-2
I1
tp2584
a(I-1
I-2
I-5
I-1
I-1
I1
I-1
I-2
tp2585
a(I-2
I1
I-5
I2
I1
I-3
I-1
I-1
tp2586
a(I-1
I1
I13
I-2
I-1
I3
I1
I0
tp2587
a(I-2
I-3
I-13
I-4
I-5
I-1
I0
I-3
tp2588
a(I-1
I-1
I0
I-1
I1
I0
I-3
I-2
tp2589
a(I-1
I-4
I-12
I0
I-1
I-4
I-1
I-3
tp2590
a(I0
I-4
I4
I-2
I-1
I2
I0
I0
tp2591
a(I0
I-1
I-5
I0
I-3
I-5
I-2
I1
tp2592
a(I-2
I-3
I-28
I-4
I-3
I2
I-1
I0
tp2593
a(I0
I3
I27
I5
I2
I3
I2
I-1
tp2594
a(I-2
I-3
I1
I-3
I0
I-2
I-1
I-2
tp2595
a(I-1
I1
I-9
I-4
I-2
I-3
I1
I-1
tp2596
a(I1
I0
I2
I-3
I-2
I-4
I-2
I0
tp2597
a(I-1
I-7
I-12
I-1
I0
I1
I-2
I0
tp2598
a(I1
I1
I6
I2
I0
I3
I-2
I-1
tp2599
a(I-4
I-5
I-16
I-7
I-2
I-4
I-4
I-3
tp2600
a(I-1
I-7
I-31
I-5
I-4
I-1
I-1
I-2
tp2601
a(I0
I-1
I26
I0
I-3
I-6
I-1
I-3
tp2602
a(I2
I2
I6
I2
I0
I8
I1
I2
tp2603
a(I0
I-1
I-1
I-1
I0
I-2
I-1
I1
tp2604
a(I-1
I0
I-7
I0
I0
I0
I-3
I-2
tp2605
a(I-3
I-2
I2
I-4
I0
I2
I-1
I0
tp2606
a(I0
I6
I39
I0
I-5
I-6
I-1
I-2
tp2607
a(I0
I-2
I-19
I0
I3
I0
I-1
I0
tp2608
a(I-1
I-4
I-20
I-4
I1
I4
I2
I-1
tp2609
a(I-2
I-4
I9
I-2
I0
I-6
I-2
I-2
tp2610
a(I-3
I-2
I-2
I0
I-1
I0
I0
I-1
tp2611
a(I-2
I-5
I-15
I-5
I-2
I0
I-7
I-3
tp2612
a(I3
I-2
I6
I1
I-4
I-4
I-7
I2
tp2613
a(I-1
I-3
I-50
I-4
I2
I1
I8
I-1
tp2614
a(I-2
I-8
I-35
I-7
I0
I-2
I0
I0
tp2615
a(I-4
I-4
I-8
I-5
I-4
I-4
I-1
I6
tp2616
a(I0
I0
I-27
I-2
I-3
I-4
I-8
I-8
tp2617
a(I4
I6
I32
I6
I1
I-4
I0
I-5
tp2618
a(I-5
I-7
I-36
I-7
I-3
I-4
I4
I14
tp2619
a(I-1
I1
I12
I-1
I1
I-1
I3
I-4
tp2620
a(I-1
I-2
I-4
I-3
I-1
I-4
I-15
I-13
tp2621
a(I6
I3
I12
I-2
I-6
I-1
I5
I43
tp2622
a(I0
I-2
I5
I1
I5
I-8
I-48
I61
tp2623
a(I-1
I6
I1
I-6
I-8
I10
I34
I16
tp2624
a(I7
I-27
I-16
I-2
I-3
I-38
I-8
I44
tp2625
a(I6
I21
I13
I9
I10
I26
I-61
I-50
tp2626
a(I-14
I-28
I-7
I-4
I-3
I26
I71
I4
tp2627
a(I1
I-11
I6
I0
I-4
I-22
I-30
I29
tp2628
a(I-1
I36
I-1
I7
I12
I-1
I24
I46
tp2629
a(I8
I2
I0
I0
I0
I17
I25
I24
tp2630
a(I-14
I7
I7
I7
I4
I-16
I-21
I8
tp2631
a(I2
I-37
I-20
I-10
I-9
I-2
I-48
I39
tp2632
a(I-6
I24
I-2
I-4
I-8
I-3
I31
I-4
tp2633
a(I-2
I-11
I-5
I-4
I0
I-28
I-36
I-22
tp2634
a(I-2
I-1
I-16
I-7
I-12
I-7
I-8
I-54
tp2635
a(I-13
I5
I-5
I-3
I0
I-26
I-39
I-7
tp2636
a(I7
I-11
I10
I1
I0
I75
I5
I-24
tp2637
a(I-3
I102
I7
I6
I4
I-47
I18
I-9
tp2638
a(I-15
I71
I-3
I2
I-9
I5
I28
I-62
tp2639
a(I34
I63
I10
I-3
I2
I67
I-46
I51
tp2640
a(I-26
I14
I-24
I-14
I-17
I-68
I-22
I-7
tp2641
a(I15
I13
I17
I3
I1
I41
I33
I-23
tp2642
a(I-3
I-24
I-4
I1
I-2
I-34
I-59
I-2
tp2643
a(I-2
I9
I-19
I-11
I-13
I7
I-1
I-33
tp2644
a(I-16
I-45
I4
I-3
I-4
I-71
I-19
I-19
tp2645
a(I-10
I-66
I1
I6
I-3
I127
I57
I6
tp2646
a(I18
I-55
I-17
I-6
I5
I81
I-118
I22
tp2647
a(I-27
I-53
I-11
I-9
I-16
I-40
I12
I-32
tp2648
a(I16
I-5
I-17
I3
I1
I48
I15
I9
tp2649
a(I-4
I56
I-15
I-10
I-1
I113
I1
I4
tp2650
a(I1
I15
I13
I2
I5
I-21
I-11
I6
tp2651
a(I-7
I-47
I23
I3
I0
I-90
I-57
I-27
tp2652
a(I3
I22
I7
I-3
I-10
I-73
I108
I8
tp2653
a(I0
I7
I-10
I-3
I5
I7
I-90
I7
tp2654
a(I-21
I-63
I-2
I-1
I-3
I-32
I-128
I-30
tp2655
a(I-16
I-33
I-16
I-10
I-15
I-21
I47
I-15
tp2656
a(I17
I19
I9
I7
I18
I86
I52
I27
tp2657
a(I-18
I-80
I-44
I-6
I-15
I-40
I65
I-5
tp2658
a(I-11
I-40
I-10
I-7
I-10
I-7
I-20
I1
tp2659
a(I47
I56
I40
I16
I21
I17
I17
I63
tp2660
a(I-12
I-58
I-6
I-10
I-15
I-12
I107
I-1
tp2661
a(I16
I102
I17
I7
I7
I21
I-11
I5
tp2662
a(I1
I-27
I-49
I-4
I-2
I-21
I-32
I0
tp2663
a(I2
I53
I28
I0
I-1
I65
I50
I-41
tp2664
a(I-8
I-90
I-7
I1
I-4
I22
I34
I77
tp2665
a(I7
I-23
I-1
I6
I17
I45
I32
I21
tp2666
a(I-5
I-54
I-21
I-6
I-21
I-122
I38
I-21
tp2667
a(I2
I-27
I-15
I-3
I10
I110
I25
I8
tp2668
a(I-1
I106
I13
I1
I11
I70
I69
I-3
tp2669
a(I15
I-21
I3
I-1
I-13
I26
I-54
I-19
tp2670
a(I-19
I10
I-18
I-16
I-4
I25
I-17
I-6
tp2671
a(I-5
I-21
I-48
I2
I5
I5
I-1
I1
tp2672
a(I7
I-49
I28
I11
I7
I13
I26
I7
tp2673
a(I-9
I-35
I18
I7
I-5
I-120
I10
I-21
tp2674
a(I-17
I-119
I-12
I-8
I-21
I-87
I-102
I-2
tp2675
a(I-18
I-81
I-49
I-25
I-22
I-100
I16
I-30
tp2676
a(I49
I85
I41
I18
I12
I81
I50
I31
tp2677
a(I-11
I-106
I-27
I-2
I9
I-17
I59
I27
tp2678
a(I20
I35
I1
I3
I6
I-100
I79
I35
tp2679
a(I1
I-28
I23
I3
I-1
I121
I60
I78
tp2680
a(I-10
I31
I-29
I-10
I-7
I9
I-65
I9
tp2681
a(I10
I-15
I10
I8
I20
I89
I-18
I-32
tp2682
a(I-9
I3
I-35
I-13
I-7
I-8
I-4
I60
tp2683
a(I16
I27
I15
I13
I6
I56
I87
I-18
tp2684
a(I-4
I-66
I12
I5
I-4
I-84
I-55
I-10
tp2685
a(I21
I100
I25
I3
I-6
I59
I101
I17
tp2686
a(I-21
I-52
I-16
I-2
I6
I105
I35
I-21
tp2687
a(I-10
I11
I-6
I-5
I-10
I-38
I-55
I-19
tp2688
a(I33
I-62
I3
I17
I39
I119
I-24
I45
tp2689
a(I3
I9
I28
I-4
I-4
I-22
I-41
I15
tp2690
a(I18
I38
I-3
I2
I9
I-18
I39
I17
tp2691
a(I-21
I-35
I-16
I-6
I1
I106
I-47
I-48
tp2692
a(I-4
I-31
I22
I7
I12
I48
I-27
I5
tp2693
a(I20
I35
I-19
I-9
I-10
I-23
I-64
I-28
tp2694
a(I-5
I-1
I-28
I-7
I-14
I4
I84
I-19
tp2695
a(I1
I-19
I35
I-6
I-7
I-3
I-14
I-5
tp2696
a(I-13
I-65
I-63
I-12
I-1
I-22
I14
I15
tp2697
a(I-13
I34
I41
I7
I-9
I-5
I-97
I-61
tp2698
a(I-4
I-67
I-22
I-3
I10
I127
I121
I32
tp2699
a(I-12
I9
I-12
I-3
I-1
I-19
I8
I-19
tp2700
a(I11
I-4
I21
I-2
I-12
I-7
I74
I2
tp2701
a(I7
I65
I3
I6
I2
I16
I80
I33
tp2702
a(I16
I123
I29
I-3
I-15
I23
I-38
I18
tp2703
a(I-3
I4
I4
I6
I-3
I-128
I-53
I-13
tp2704
a(I3
I30
I12
I4
I3
I-44
I-68
I-5
tp2705
a(I3
I-31
I-53
I-6
I3
I0
I12
I19
tp2706
a(I2
I-31
I9
I4
I10
I63
I-11
I-3
tp2707
a(I-13
I6
I-8
I-5
I-5
I-94
I-38
I-1
tp2708
a(I12
I127
I3
I1
I-2
I55
I88
I-5
tp2709
a(I-8
I-96
I-6
I-3
I-7
I-46
I73
I14
tp2710
a(I-9
I-67
I8
I-3
I8
I77
I5
I10
tp2711
a(I-17
I-20
I-21
I-11
I-16
I14
I-32
I-7
tp2712
a(I-3
I3
I-40
I-2
I5
I-39
I-29
I-17
tp2713
a(I11
I49
I48
I7
I15
I34
I11
I10
tp2714
a(I4
I-20
I-11
I1
I13
I65
I82
I21
tp2715
a(I22
I69
I10
I0
I-15
I-81
I-74
I-21
tp2716
a(I-8
I49
I-12
I-17
I-12
I-53
I-38
I-17
tp2717
a(I10
I78
I-44
I3
I2
I-87
I60
I14
tp2718
a(I22
I-1
I19
I1
I-5
I-35
I-16
I-1
tp2719
a(I-8
I-13
I-2
I4
I9
I22
I15
I2
tp2720
a(I-2
I1
I15
I4
I2
I-65
I-76
I11
tp2721
a(I-11
I-65
I-13
I-1
I3
I55
I85
I30
tp2722
a(I-17
I-48
I1
I-2
I-2
I51
I-9
I-23
tp2723
a(I14
I13
I14
I1
I-3
I-64
I-23
I-9
tp2724
a(I-5
I-32
I-3
I-7
I-11
I-12
I-8
I-21
tp2725
a(I-2
I36
I-4
I-10
I-10
I-30
I27
I6
tp2726
a(I15
I45
I-13
I3
I21
I43
I63
I13
tp2727
a(I1
I-24
I-7
I2
I5
I80
I-106
I3
tp2728
a(I3
I72
I35
I10
I2
I3
I25
I2
tp2729
a(I-11
I11
I-3
I-4
I-15
I-21
I-47
I-12
tp2730
a(I1
I-21
I-8
I-4
I2
I24
I0
I0
tp2731
a(I-6
I14
I3
I-1
I-1
I-20
I36
I7
tp2732
a(I-9
I-43
I-1
I1
I-2
I-7
I-27
I-4
tp2733
a(I-9
I13
I7
I-6
I-8
I23
I21
I7
tp2734
a(I-3
I-6
I18
I-4
I-11
I-16
I-38
I-11
tp2735
a(I2
I-2
I-9
I5
I7
I14
I5
I-7
tp2736
a(I-4
I-26
I14
I2
I4
I22
I56
I3
tp2737
a(I9
I7
I-7
I-6
I-14
I-4
I-2
I10
tp2738
a(I2
I-10
I-1
I15
I-4
I-12
I-36
I-1
tp2739
a(I-7
I-3
I0
I5
I-8
I-1
I33
I-10
tp2740
a(I4
I7
I8
I-1
I4
I6
I15
I6
tp2741
a(I-2
I5
I3
I-1
I0
I12
I3
I1
tp2742
a(I-2
I-6
I1
I-9
I2
I-6
I-24
I-6
tp2743
a(I3
I6
I-3
I0
I1
I10
I16
I1
tp2744
a(I-4
I4
I-30
I-35
I5
I-5
I-29
I-7
tp2745
a(I0
I9
I7
I26
I4
I4
I3
I2
tp2746
a(I-2
I3
I17
I15
I-8
I-3
I-25
I-7
tp2747
a(I2
I-11
I-7
I-10
I-8
I0
I17
I2
tp2748
a(I-3
I-12
I1
I4
I-8
I-4
I-35
I-7
tp2749
a(I1
I-4
I-4
I-8
I9
I1
I-4
I6
tp2750
a(I1
I-6
I-26
I-17
I0
I-4
I11
I3
tp2751
a(I1
I11
I20
I9
I-8
I-7
I-29
I-1
tp2752
a(I-2
I-14
I6
I-6
I-10
I-7
I-3
I-4
tp2753
a(I-6
I-10
I-21
I-13
I0
I0
I-20
I-2
tp2754
a(I-1
I-8
I-14
I7
I-2
I-4
I-19
I-1
tp2755
a(I-2
I-1
I32
I2
I4
I0
I4
I-2
tp2756
a(I3
I8
I-2
I-6
I3
I3
I-4
I2
tp2757
a(I1
I1
I-4
I15
I1
I5
I18
I3
tp2758
a(I-1
I9
I10
I10
I-2
I-7
I-21
I-5
tp2759
a(I-8
I-13
I-22
I-7
I-5
I1
I8
I-1
tp2760
a(I-4
I1
I8
I-6
I6
I3
I2
I-2
tp2761
a(I3
I2
I2
I13
I7
I4
I0
I3
tp2762
a(I2
I5
I-7
I-8
I-5
I-4
I-12
I-1
tp2763
a(I-4
I-2
I-21
I-12
I-4
I-3
I8
I-3
tp2764
a(I1
I14
I62
I6
I-3
I-1
I4
I2
tp2765
a(I-4
I-11
I-38
I-6
I-5
I-4
I-3
I-1
tp2766
a(I3
I12
I22
I2
I9
I7
I0
I0
tp2767
a(I5
I8
I3
I6
I3
I4
I8
I3
tp2768
a(I1
I8
I-18
I-2
I0
I2
I-17
I2
tp2769
a(I0
I-2
I18
I7
I-1
I-7
I-7
I0
tp2770
a(I-4
I-10
I-22
I-3
I-3
I2
I12
I-2
tp2771
a(I0
I0
I-1
I0
I8
I6
I4
I-1
tp2772
a(I-1
I4
I19
I-3
I-8
I1
I-2
I-3
tp2773
a(I3
I9
I-9
I-2
I-5
I-4
I-1
I-2
tp2774
a(I-1
I-6
I15
I4
I-2
I-2
I-8
I-1
tp2775
a(I-6
I-2
I-32
I-18
I2
I-3
I-1
I-5
tp2776
a(I-4
I-5
I2
I-9
I3
I-1
I-4
I-2
tp2777
a(I-1
I2
I9
I0
I0
I0
I-1
I0
tp2778
a(I0
I-8
I-3
I2
I0
I3
I-3
I0
tp2779
a(I-1
I-6
I-35
I1
I2
I1
I-2
I-2
tp2780
a(I2
I6
I17
I2
I5
I3
I8
I0
tp2781
a(I-3
I1
I-3
I1
I-7
I-5
I-2
I-1
tp2782
a(I-2
I-11
I-57
I-6
I0
I-2
I1
I-3
tp2783
a(I3
I4
I8
I-2
I-6
I-3
I-1
I-1
tp2784
a(I0
I11
I26
I-13
I-6
I3
I-1
I1
tp2785
a(I1
I2
I39
I3
I1
I-5
I0
I0
tp2786
a(I-4
I-3
I-58
I-4
I-5
I2
I-3
I-4
tp2787
a(I1
I0
I-9
I-2
I-1
I-5
I-1
I-1
tp2788
a(I-2
I-2
I-16
I2
I0
I-1
I-4
I-4
tp2789
a(I-2
I8
I70
I-1
I-4
I-3
I0
I-2
tp2790
a(I0
I-7
I12
I-6
I4
I1
I-1
I0
tp2791
a(I1
I0
I-38
I7
I-4
I-4
I1
I-1
tp2792
a(I-1
I2
I14
I3
I1
I0
I-3
I-2
tp2793
a(I-3
I-3
I-16
I4
I4
I2
I1
I-2
tp2794
a(I-4
I-12
I-16
I-4
I-1
I-1
I-3
I-4
tp2795
a(I0
I9
I34
I-5
I-8
I-1
I-3
I-1
tp2796
a(I1
I-5
I-62
I2
I-1
I2
I0
I2
tp2797
a(I0
I7
I54
I5
I5
I1
I1
I-2
tp2798
a(I0
I-3
I-15
I0
I-2
I-3
I1
I-1
tp2799
a(I-4
I-12
I32
I1
I0
I1
I-2
I-2
tp2800
a(I0
I8
I22
I7
I-2
I-2
I1
I1
tp2801
a(I-2
I-8
I-33
I-5
I1
I2
I2
I-1
tp2802
a(I-3
I0
I-3
I-1
I4
I1
I0
I-1
tp2803
a(I-3
I-6
I-36
I-7
I-5
I-6
I-2
I0
tp2804
a(I-2
I-2
I14
I-2
I-2
I1
I-1
I-3
tp2805
a(I2
I7
I9
I1
I0
I-4
I1
I-2
tp2806
a(I-1
I-7
I1
I-2
I3
I0
I1
I0
tp2807
a(I-2
I-7
I-30
I2
I-3
I0
I0
I-2
tp2808
a(I0
I3
I-12
I-3
I1
I2
I0
I-2
tp2809
a(I-1
I-2
I-8
I1
I-4
I-1
I-2
I-1
tp2810
a(I-6
I-3
I2
I-4
I-3
I-3
I-1
I-2
tp2811
a(I-2
I-3
I-22
I-1
I-1
I-1
I-3
I0
tp2812
a(I-1
I-2
I7
I0
I0
I-1
I-2
I-1
tp2813
a(I3
I-2
I-4
I2
I1
I0
I0
I-1
tp2814
a(I-3
I-4
I-10
I-9
I-11
I-3
I-1
I-3
tp2815
a(I-3
I0
I10
I-1
I2
I-1
I1
I-1
tp2816
a(I0
I-1
I23
I5
I4
I4
I0
I0
tp2817
a(I-5
I-2
I14
I-4
I-1
I2
I-2
I-2
tp2818
a(I-2
I-2
I9
I-4
I-6
I-8
I-3
I-1
tp2819
a(I-2
I-7
I-54
I-3
I0
I0
I0
I0
tp2820
a(I-3
I-4
I-2
I-5
I-4
I-2
I0
I-1
tp2821
a(I0
I3
I7
I3
I4
I1
I2
I1
tp2822
a(I-2
I-8
I-33
I-4
I-2
I-1
I-1
I-2
tp2823
a(I-3
I3
I22
I2
I-1
I-1
I-2
I-3
tp2824
a(I-3
I-3
I-24
I1
I3
I-1
I-2
I-2
tp2825
a(I-2
I0
I2
I-5
I-10
I-6
I-3
I-3
tp2826
a(I-6
I3
I6
I0
I0
I1
I-1
I-2
tp2827
a(I-1
I-1
I7
I1
I-1
I-1
I-2
I-1
tp2828
a(I-2
I-8
I-28
I-2
I3
I4
I-1
I-1
tp2829
a(I1
I5
I17
I1
I4
I1
I-1
I-1
tp2830
a(I1
I2
I5
I-1
I-6
I-6
I-2
I-1
tp2831
a(I-2
I-6
I-9
I-1
I-1
I1
I-3
I-1
tp2832
a(I-3
I-5
I-18
I-15
I-6
I-5
I0
I-3
tp2833
a(I7
I4
I6
I9
I6
I5
I1
I2
tp2834
a(I-2
I-1
I11
I-1
I-4
I-2
I-1
I-2
tp2835
a(I-1
I10
I12
I-2
I-3
I-1
I-4
I-1
tp2836
a(I-1
I-5
I-6
I-1
I0
I-1
I-3
I-2
tp2837
a(I-5
I-5
I-14
I-4
I1
I-1
I0
I-3
tp2838
a(I-2
I1
I-2
I2
I-2
I0
I-1
I-1
tp2839
a(I0
I0
I9
I0
I1
I1
I-1
I0
tp2840
a(I0
I1
I7
I-3
I-3
I-1
I-2
I-4
tp2841
a(I-2
I-1
I4
I-3
I-4
I-2
I1
I-1
tp2842
a(I0
I-2
I-16
I-5
I-4
I-3
I-2
I-3
tp2843
a(I3
I-1
I-10
I3
I0
I-3
I-1
I2
tp2844
a(I2
I7
I15
I2
I2
I-2
I-1
I2
tp2845
a(I0
I-4
I-21
I0
I3
I2
I0
I0
tp2846
a(I0
I-2
I7
I3
I-2
I-5
I-2
I-1
tp2847
a(I-2
I-3
I-3
I-7
I-4
I-3
I0
I-2
tp2848
a(I1
I0
I-5
I0
I-1
I-3
I0
I0
tp2849
a(I-2
I-3
I0
I-2
I-1
I0
I-1
I-1
tp2850
a(I-3
I-3
I3
I-1
I-2
I0
I-2
I-1
tp2851
a(I-2
I2
I-11
I0
I1
I-1
I0
I-2
tp2852
a(I-2
I-2
I-3
I-1
I-2
I-2
I0
I-3
tp2853
a(I-2
I-2
I6
I0
I-3
I-4
I-1
I-1
tp2854
a(I-1
I-1
I-12
I-4
I-4
I0
I0
I-1
tp2855
a(I2
I6
I5
I2
I5
I-2
I-1
I1
tp2856
a(I0
I6
I34
I5
I2
I-1
I1
I0
tp2857
a(I-3
I-5
I-14
I-3
I-2
I-2
I0
I-1
tp2858
a(I-1
I0
I1
I0
I0
I-1
I-3
I-1
tp2859
a(I0
I-4
I-25
I-2
I0
I-1
I-2
I0
tp2860
a(I-1
I4
I30
I-3
I-1
I0
I-1
I0
tp2861
a(I-1
I-3
I-6
I2
I1
I4
I1
I-2
tp2862
a(I-2
I-4
I-7
I-7
I-7
I-5
I-3
I-1
tp2863
a(I-1
I-4
I-2
I-3
I-4
I-1
I-1
I-1
tp2864
a(I-1
I-2
I-5
I-1
I2
I3
I-1
I-2
tp2865
a(I-1
I-1
I3
I-1
I-2
I-6
I-4
I0
tp2866
a(I0
I-3
I-20
I-5
I-7
I-4
I1
I-2
tp2867
a(I-1
I4
I14
I-2
I-5
I-6
I1
I0
tp2868
a(I-1
I-2
I-12
I0
I0
I1
I0
I0
tp2869
a(I-1
I4
I28
I3
I2
I0
I0
I0
tp2870
a(I-5
I-8
I-37
I-5
I0
I-1
I-2
I-1
tp2871
a(I2
I4
I37
I6
I1
I-1
I-1
I0
tp2872
a(I0
I-2
I6
I-1
I0
I-1
I-2
I0
tp2873
a(I-2
I-2
I-10
I-6
I0
I0
I-3
I-1
tp2874
a(I-2
I-1
I13
I1
I-2
I-1
I-3
I-1
tp2875
a(I-1
I-2
I-14
I-1
I-2
I1
I0
I1
tp2876
a(I1
I1
I8
I4
I4
I3
I0
I-1
tp2877
a(I-2
I-3
I-16
I-3
I-3
I-3
I-3
I-2
tp2878
a(I1
I-4
I-12
I-1
I-3
I-4
I-1
I-2
tp2879
a(I1
I6
I32
I5
I6
I-5
I-2
I1
tp2880
a(I0
I3
I8
I1
I1
I-3
I-2
I-1
tp2881
a(I-1
I-6
I-12
I-2
I2
I2
I-1
I-1
tp2882
a(I-1
I0
I-2
I-1
I0
I0
I1
I0
tp2883
a(I-2
I-2
I-13
I-3
I-3
I-5
I0
I-2
tp2884
a(I-1
I0
I-2
I0
I1
I2
I1
I0
tp2885
a(I-2
I-1
I-12
I1
I0
I-1
I-2
I0
tp2886
a(I-2
I-3
I25
I0
I0
I-2
I-2
I-3
tp2887
a(I-2
I-3
I-11
I-4
I-7
I0
I-2
I-3
tp2888
a(I-1
I0
I7
I3
I3
I0
I-1
I0
tp2889
a(I-4
I-1
I19
I-2
I-2
I-2
I-3
I-4
tp2890
a(I1
I1
I-5
I0
I4
I-1
I-2
I-1
tp2891
a(I-2
I0
I-5
I-2
I-7
I-4
I-1
I0
tp2892
a(I-1
I3
I25
I-1
I-1
I-4
I0
I-1
tp2893
a(I-2
I-4
I-19
I-1
I1
I0
I-2
I-2
tp2894
a(I-1
I-2
I4
I0
I4
I2
I0
I1
tp2895
a(I0
I-1
I-1
I-2
I-1
I0
I-2
I-4
tp2896
a(I-2
I-4
I-13
I-4
I-4
I-1
I-1
I-2
tp2897
a(I-2
I1
I15
I-1
I2
I3
I1
I0
tp2898
a(I-2
I-4
I-13
I-2
I1
I2
I-2
I-1
tp2899
a(I0
I0
I-4
I-3
I-7
I-6
I-2
I-1
tp2900
a(I1
I-1
I5
I1
I-1
I-2
I-1
I-1
tp2901
a(I-1
I-2
I-11
I-2
I1
I-2
I-2
I-2
tp2902
a(I0
I3
I22
I2
I2
I5
I0
I0
tp2903
a(I-1
I-3
I-10
I-2
I1
I1
I2
I1
tp2904
a(I0
I1
I-19
I-3
I-3
I-1
I1
I-1
tp2905
a(I1
I3
I-8
I-1
I-3
I-5
I-2
I0
tp2906
a(I-1
I0
I28
I-1
I-3
I-1
I-1
I1
tp2907
a(I-1
I-1
I1
I2
I3
I0
I0
I-1
tp2908
a(I-1
I-2
I-4
I-2
I-1
I0
I0
I-2
tp2909
a(I-2
I-6
I-18
I-5
I-3
I-4
I-1
I-2
tp2910
a(I0
I1
I-19
I0
I-5
I-1
I1
I-1
tp2911
a(I-1
I-2
I15
I-1
I1
I-2
I-1
I0
tp2912
a(I-3
I-3
I-13
I-1
I0
I-1
I-1
I-1
tp2913
a(I-1
I-4
I0
I-1
I-2
I-1
I-3
I-2
tp2914
a(I0
I0
I-13
I0
I-1
I-1
I-1
I1
tp2915
a(I1
I-4
I1
I-3
I0
I-1
I1
I0
tp2916
a(I1
I4
I2
I-4
I-4
I-5
I-1
I-2
tp2917
a(I0
I0
I1
I-1
I0
I4
I1
I1
tp2918
a(I0
I0
I-1
I0
I7
I1
I-1
I-1
tp2919
a(I-3
I-1
I-7
I-5
I-7
I-4
I-3
I-4
tp2920
a(I0
I-2
I-4
I-1
I0
I-2
I1
I0
tp2921
a(I1
I1
I-3
I0
I-3
I-2
I-3
I-1
tp2922
a(I-1
I-3
I-9
I-3
I-3
I2
I0
I0
tp2923
a(I1
I0
I7
I3
I1
I0
I-2
I-2
tp2924
a(I-1
I-2
I-8
I-4
I-5
I0
I0
I0
tp2925
a(I-1
I0
I2
I1
I-1
I0
I-1
I-2
tp2926
a(I-3
I-6
I-17
I0
I0
I-2
I-2
I-1
tp2927
a(I-2
I-1
I-1
I-5
I1
I4
I1
I0
tp2928
a(I-1
I-4
I-3
I1
I2
I-1
I-1
I-2
tp2929
a(I-2
I-2
I-3
I-3
I-1
I0
I-1
I0
tp2930
a(I-1
I1
I12
I-1
I0
I-2
I0
I-1
tp2931
a(I-2
I-3
I-11
I2
I1
I0
I-1
I-1
tp2932
a(I-2
I-1
I11
I3
I0
I-2
I0
I1
tp2933
a(I-1
I3
I-14
I0
I-1
I2
I1
I1
tp2934
a(I-1
I0
I14
I-2
I-1
I0
I-2
I-2
tp2935
a(I0
I-4
I-14
I-4
I-1
I-3
I-3
I1
tp2936
a(I0
I-2
I-13
I-3
I2
I-3
I-1
I-2
tp2937
a(I-2
I-3
I11
I-3
I-3
I-3
I0
I-4
tp2938
a(I0
I4
I4
I-2
I-4
I0
I0
I0
tp2939
a(I-1
I-2
I-13
I-2
I3
I-1
I-2
I-1
tp2940
a(I1
I2
I14
I1
I-2
I-1
I0
I-1
tp2941
a(I-2
I-2
I-17
I-3
I0
I-3
I-1
I-1
tp2942
a(I-1
I-2
I-1
I0
I1
I-1
I-2
I-1
tp2943
a(I0
I-1
I6
I-2
I-3
I-5
I-1
I0
tp2944
a(I2
I5
I7
I3
I0
I-2
I-1
I0
tp2945
a(I-2
I-3
I-2
I-3
I-3
I-2
I-2
I-3
tp2946
a(I0
I0
I-6
I0
I2
I-1
I-1
I-2
tp2947
a(I-4
I-2
I-6
I-2
I-1
I1
I0
I-3
tp2948
a(I-1
I-5
I-10
I-4
I-4
I-2
I-2
I-2
tp2949
a(I-1
I0
I0
I-1
I0
I-2
I1
I-2
tp2950
a(I-1
I-2
I-3
I0
I-1
I-1
I0
I0
tp2951
a(I2
I-2
I-19
I-3
I-1
I-2
I-1
I0
tp2952
a(I0
I-3
I-10
I-3
I0
I-3
I-1
I-2
tp2953
a(I-1
I-1
I1
I0
I1
I0
I-1
I0
tp2954
a(I0
I-2
I-5
I0
I0
I1
I0
I-1
tp2955
a(I0
I2
I1
I-2
I-3
I-4
I-2
I0
tp2956
a(I-3
I-5
I3
I-1
I1
I0
I-1
I-3
tp2957
a(I-1
I0
I1
I-3
I-5
I-1
I-1
I0
tp2958
a(I-2
I-2
I-8
I-2
I3
I-1
I-1
I-2
tp2959
a(I0
I0
I5
I3
I1
I5
I4
I3
tp2960
a(I-1
I-1
I12
I-2
I-4
I-2
I0
I0
tp2961
a(I2
I4
I14
I1
I-2
I-2
I1
I0
tp2962
a(I-2
I-6
I-10
I-4
I0
I1
I-1
I-1
tp2963
a(I-1
I-1
I1
I0
I-1
I-2
I-1
I0
tp2964
a(I-2
I-5
I-17
I0
I1
I1
I-3
I-1
tp2965
a(I-2
I-1
I-3
I-3
I-2
I2
I-1
I-1
tp2966
a(I-1
I-1
I0
I-2
I-3
I-6
I-1
I0
tp2967
a(I0
I-1
I-2
I2
I1
I-1
I-1
I-1
tp2968
a(I0
I-1
I-6
I-1
I5
I-2
I1
I-1
tp2969
a(I-2
I-3
I-16
I-6
I-5
I0
I-4
I-2
tp2970
a(I-2
I-2
I-10
I-3
I-1
I0
I-3
I-2
tp2971
a(I1
I1
I14
I0
I-2
I-5
I-1
I-1
tp2972
a(I-2
I-1
I-8
I0
I0
I-1
I0
I0
tp2973
a(I-2
I-3
I-12
I-1
I-1
I2
I1
I0
tp2974
a(I0
I-1
I-2
I0
I0
I2
I2
I-1
tp2975
a(I0
I-2
I2
I-2
I-3
I-3
I-2
I-2
tp2976
a(I-2
I-2
I-5
I-3
I-1
I0
I-1
I-2
tp2977
a(I-2
I0
I-5
I-3
I-3
I-1
I-1
I-1
tp2978
a(I-1
I-2
I-6
I-3
I-5
I-3
I-3
I-1
tp2979
a(I0
I0
I-12
I-1
I1
I-1
I-2
I-1
tp2980
a(I2
I2
I18
I4
I4
I0
I0
I1
tp2981
a(I0
I0
I-15
I1
I5
I1
I0
I1
tp2982
a(I0
I-1
I7
I1
I0
I1
I-1
I0
tp2983
a(I-1
I-1
I-1
I-2
I1
I0
I-2
I-2
tp2984
a(I-2
I-1
I-10
I1
I2
I-6
I-2
I-1
tp2985
a(I-3
I-2
I3
I-5
I-15
I-6
I-3
I0
tp2986
a(I-2
I-3
I-29
I-7
I-2
I0
I-1
I-1
tp2987
a(I0
I3
I30
I4
I1
I1
I1
I1
tp2988
a(I0
I3
I14
I1
I-1
I0
I1
I0
tp2989
a(I-1
I-1
I1
I2
I6
I6
I-2
I-3
tp2990
a(I-3
I-6
I-23
I-4
I-2
I-4
I-1
I-2
tp2991
a(I1
I5
I28
I1
I-1
I-4
I2
I2
tp2992
a(I1
I-2
I-13
I2
I1
I1
I0
I-1
tp2993
a(I-2
I-2
I7
I-4
I-2
I-2
I-2
I0
tp2994
a(I1
I0
I-1
I0
I-3
I-2
I1
I-1
tp2995
a(I-2
I-5
I-5
I-3
I-2
I-2
I-4
I-2
tp2996
a(I-1
I1
I1
I0
I1
I-2
I0
I0
tp2997
a(I-1
I-3
I-24
I-3
I-2
I-1
I-1
I-2
tp2998
a(I0
I-4
I-13
I-2
I-3
I-3
I-3
I0
tp2999
a(I-1
I-4
I-8
I2
I1
I-1
I1
I0
tp3000
a(I-1
I0
I9
I-1
I-1
I0
I0
I-1
tp3001
a(I0
I-2
I-8
I-1
I1
I1
I-1
I-1
tp3002
a(I-1
I0
I1
I-3
I-1
I-1
I-1
I-1
tp3003
a(I1
I0
I13
I3
I2
I1
I2
I-1
tp3004
aas.