(dp0
S'fist-horizontal'
p1
(lp2
(lp3
(lp4
I-27
aI-20
aI-19
aI-15
aI-16
aI-12
aI1
aI14
aI-3146
aI1110
aI-600
aI-16030
aa(lp5
I0
aI3
aI-14
aI-2
aI1
aI0
aI-7
aI-5
aI-3146
aI1110
aI-600
aI-16030
aag4
ag5
ag4
ag5
ag4
ag5
ag4
ag5
ag4
ag5
ag4
ag5
ag4
ag5
ag4
ag5
ag4
ag5
ag4
ag5
ag4
ag5
ag4
ag5
ag4
ag5
ag4
ag5
ag4
ag5
ag4
ag5
ag4
ag5
ag4
ag5
ag4
ag5
ag4
ag5
ag4
ag5
ag4
ag5
ag4
ag5
ag4
ag5
ag4
ag5
ag4
ag5
ag4
ag5
ag4
ag5
ag4
ag5
ag4
ag5
ag4
ag5
ag4
ag5
ag4
ag5
ag4
ag5
ag4
ag5
ag4
ag5
ag4
ag5
ag4
ag5
ag4
ag5
ag4
ag5
ag4
ag5
ag4
ag5
ag4
ag5
ag4
ag5
ag4
ag5
ag4
ag5
ag4
ag5
ag4
ag5
ag4
ag5
ag4
ag5
ag4
ag5
ag4
ag5
ag4
ag5
ag4
ag5
ag4
ag5
ag4
ag5
ag4
ag5
ag4
ag5
ag4
ag5
ag4
ag5
ag4
ag5
ag4
ag5
ag4
ag5
ag4
ag5
ag4
ag5
ag4
ag5
ag4
ag5
ag4
ag5
ag4
ag5
ag4
ag5
ag4
ag5
ag4
ag5
ag4
ag5
ag4
ag5
ag4
ag5
ag4
ag5
ag4
ag5
ag4
ag5
ag4
ag5
ag4
ag5
ag4
ag5
ag4
ag5
ag4
ag5
ag4
ag5
ag4
ag5
ag4
ag5
ag4
ag5
ag4
ag5
ag4
ag5
ag4
ag5
ag4
ag5
ag4
ag5
ag4
ag5
ag4
ag5
ag4
ag5
ag4
ag5
ag4
ag5
ag4
ag5
ag4
ag5
ag4
ag5
ag4
ag5
ag4
ag5
ag4
ag5
ag4
ag5
ag4
ag5
ag4
ag5
ag4
ag5
ag4
ag5
ag4
ag5
ag4
ag5
ag4
ag5
ag4
ag5
ag4
ag5
ag4
ag5
ag4
ag5
ag4
ag5
ag4
ag5
ag4
ag5
ag4
ag5
ag4
ag5
ag4
ag5
ag4
ag5
ag4
ag5
ag4
ag5
ag4
ag5
ag4
ag5
ag4
ag5
ag4
ag5
ag4
ag5
ag4
ag5
ag4
ag5
ag4
ag5
ag4
ag5
ag4
ag5
ag4
ag5
ag4
ag5
ag4
ag5
ag4
ag5
ag4
ag5
ag4
ag5
ag4
ag5
ag4
ag5
ag4
ag5
ag4
ag5
ag4
ag5
ag4
ag5
ag4
ag5
ag4
ag5
ag4
ag5
ag4
ag5
ag4
ag5
ag4
ag5
ag4
ag5
ag4
ag5
ag4
ag5
ag4
ag5
ag4
ag5
ag4
ag5
ag4
ag5
ag4
ag5
ag4
ag5
ag4
ag5
ag4
ag5
ag4
ag5
ag4
ag5
ag4
ag5
ag4
ag5
ag4
ag5
ag4
ag5
ag4
ag5
ag4
ag5
ag4
ag5
ag4
ag5
ag4
ag5
ag4
ag5
ag4
ag5
ag4
ag5
ag4
ag5
ag4
ag5
ag4
ag5
ag4
ag5
ag4
ag5
ag4
ag5
ag4
ag5
ag4
ag5
ag4
ag5
ag4
ag5
ag4
ag5
ag4
ag5
ag4
ag5
ag4
ag5
ag4
ag5
ag4
ag5
ag4
ag5
ag4
ag5
ag4
ag5
ag4
ag5
ag4
ag5
ag4
ag5
ag4
ag5
ag4
ag5
ag4
ag5
ag4
ag5
ag4
ag5
ag4
ag5
ag4
ag5
aa(lp6
g4
ag5
ag4
ag5
ag4
ag5
ag4
ag5
ag4
ag5
ag4
ag5
ag4
ag5
ag4
ag5
ag4
ag5
ag4
ag5
ag4
ag5
ag4
ag5
ag4
ag5
ag4
ag5
ag4
ag5
ag4
ag5
ag4
ag5
ag4
ag5
ag4
ag5
ag4
ag5
ag4
ag5
ag4
ag5
ag4
ag5
ag4
ag5
ag4
ag5
ag4
ag5
ag4
ag5
ag4
ag5
ag4
ag5
ag4
ag5
ag4
ag5
ag4
ag5
ag4
ag5
ag4
ag5
ag4
ag5
ag4
ag5
ag4
ag5
ag4
ag5
ag4
ag5
ag4
ag5
ag4
ag5
ag4
ag5
ag4
ag5
ag4
ag5
ag4
ag5
ag4
ag5
ag4
ag5
ag4
ag5
ag4
ag5
ag4
ag5
ag4
ag5
ag4
ag5
ag4
ag5
ag4
ag5
ag4
ag5
ag4
ag5
ag4
ag5
ag4
ag5
ag4
ag5
ag4
ag5
ag4
ag5
ag4
ag5
ag4
ag5
ag4
ag5
ag4
ag5
ag4
ag5
ag4
ag5
ag4
ag5
ag4
ag5
ag4
ag5
ag4
ag5
ag4
ag5
ag4
ag5
ag4
ag5
ag4
ag5
ag4
ag5
ag4
ag5
ag4
ag5
ag4
ag5
ag4
ag5
ag4
ag5
ag4
ag5
ag4
ag5
ag4
ag5
ag4
ag5
ag4
ag5
ag4
ag5
ag4
ag5
ag4
ag5
ag4
ag5
ag4
ag5
ag4
ag5
ag4
ag5
ag4
ag5
ag4
ag5
ag4
ag5
ag4
ag5
ag4
ag5
ag4
ag5
ag4
ag5
ag4
ag5
ag4
ag5
ag4
ag5
ag4
ag5
ag4
ag5
ag4
ag5
ag4
ag5
ag4
ag5
ag4
ag5
ag4
ag5
ag4
ag5
ag4
ag5
ag4
ag5
ag4
ag5
ag4
ag5
ag4
ag5
ag4
ag5
ag4
ag5
ag4
ag5
ag4
ag5
ag4
ag5
ag4
ag5
ag4
ag5
ag4
ag5
ag4
ag5
ag4
ag5
ag4
ag5
ag4
ag5
ag4
ag5
ag4
ag5
ag4
ag5
ag4
ag5
ag4
ag5
ag4
ag5
ag4
ag5
ag4
ag5
ag4
ag5
ag4
ag5
ag4
ag5
ag4
ag5
ag4
ag5
ag4
ag5
ag4
ag5
ag4
ag5
ag4
ag5
ag4
ag5
ag4
ag5
ag4
ag5
ag4
ag5
ag4
ag5
ag4
ag5
ag4
ag5
ag4
ag5
ag4
ag5
ag4
ag5
ag4
ag5
ag4
ag5
ag4
ag5
ag4
ag5
ag4
ag5
ag4
ag5
ag4
ag5
ag4
ag5
ag4
ag5
ag4
ag5
ag4
ag5
ag4
ag5
ag4
ag5
ag4
ag5
ag4
ag5
ag4
ag5
ag4
ag5
ag4
ag5
ag4
ag5
ag4
ag5
ag4
ag5
ag4
ag5
ag4
ag5
ag4
ag5
ag4
ag5
ag4
ag5
ag4
ag5
ag4
ag5
ag4
ag5
ag4
ag5
ag4
ag5
ag4
ag5
ag4
ag5
ag4
ag5
ag4
ag5
ag4
ag5
ag4
ag5
ag4
ag5
ag4
ag5
ag4
ag5
ag4
ag5
ag4
ag5
ag4
ag5
ag4
ag5
ag4
ag5
ag4
ag5
ag4
ag5
ag4
ag5
ag4
ag5
ag4
ag5
ag4
ag5
ag4
ag5
ag4
ag5
ag4
ag5
ag4
ag5
ag4
ag5
ag4
ag5
ag4
ag5
ag4
ag5
ag4
ag5
ag4
ag5
ag4
ag5
ag4
ag5
aasS'fist-down'
p7
(lp8
(lp9
g4
ag5
ag4
ag5
ag4
ag5
ag4
ag5
ag4
ag5
ag4
ag5
ag4
ag5
ag4
ag5
ag4
ag5
ag4
ag5
ag4
ag5
ag4
ag5
ag4
ag5
ag4
ag5
ag4
ag5
ag4
ag5
ag4
ag5
ag4
ag5
ag4
ag5
ag4
ag5
ag4
ag5
ag4
ag5
ag4
ag5
ag4
ag5
ag4
ag5
ag4
ag5
ag4
ag5
ag4
ag5
ag4
ag5
ag4
ag5
ag4
ag5
ag4
ag5
ag4
ag5
ag4
ag5
ag4
ag5
ag4
ag5
ag4
ag5
ag4
ag5
ag4
ag5
ag4
ag5
ag4
ag5
ag4
ag5
ag4
ag5
ag4
ag5
ag4
ag5
ag4
ag5
ag4
ag5
ag4
ag5
ag4
ag5
ag4
ag5
ag4
ag5
ag4
ag5
ag4
ag5
ag4
ag5
ag4
ag5
ag4
ag5
ag4
ag5
ag4
ag5
ag4
ag5
ag4
ag5
ag4
ag5
ag4
ag5
ag4
ag5
ag4
ag5
ag4
ag5
ag4
ag5
ag4
ag5
ag4
ag5
ag4
ag5
ag4
ag5
ag4
ag5
ag4
ag5
ag4
ag5
ag4
ag5
ag4
ag5
ag4
ag5
ag4
ag5
ag4
ag5
ag4
ag5
ag4
ag5
ag4
ag5
ag4
ag5
ag4
ag5
ag4
ag5
ag4
ag5
ag4
ag5
ag4
ag5
ag4
ag5
ag4
ag5
ag4
ag5
ag4
ag5
ag4
ag5
ag4
ag5
ag4
ag5
ag4
ag5
ag4
ag5
ag4
ag5
ag4
ag5
ag4
ag5
ag4
ag5
ag4
ag5
ag4
ag5
ag4
ag5
ag4
ag5
ag4
ag5
ag4
ag5
ag4
ag5
ag4
ag5
ag4
ag5
ag4
ag5
ag4
ag5
ag4
ag5
ag4
ag5
ag4
ag5
ag4
ag5
ag4
ag5
ag4
ag5
ag4
ag5
ag4
ag5
ag4
ag5
ag4
ag5
ag4
ag5
ag4
ag5
ag4
ag5
ag4
ag5
ag4
ag5
ag4
ag5
ag4
ag5
ag4
ag5
ag4
ag5
ag4
ag5
ag4
ag5
ag4
ag5
ag4
ag5
ag4
ag5
ag4
ag5
ag4
ag5
ag4
ag5
ag4
ag5
ag4
ag5
ag4
ag5
ag4
ag5
ag4
ag5
ag4
ag5
ag4
ag5
ag4
ag5
ag4
ag5
ag4
ag5
ag4
ag5
ag4
ag5
ag4
ag5
ag4
ag5
ag4
ag5
ag4
ag5
ag4
ag5
ag4
ag5
ag4
ag5
ag4
ag5
ag4
ag5
ag4
ag5
ag4
ag5
ag4
ag5
ag4
ag5
ag4
ag5
ag4
ag5
ag4
ag5
ag4
ag5
ag4
ag5
ag4
ag5
ag4
ag5
ag4
ag5
ag4
ag5
ag4
ag5
ag4
ag5
ag4
ag5
ag4
ag5
ag4
ag5
ag4
ag5
ag4
ag5
ag4
ag5
ag4
ag5
ag4
ag5
ag4
ag5
ag4
ag5
ag4
ag5
ag4
ag5
ag4
ag5
ag4
ag5
ag4
ag5
ag4
ag5
ag4
ag5
ag4
ag5
ag4
ag5
ag4
ag5
ag4
ag5
ag4
ag5
ag4
ag5
ag4
ag5
ag4
ag5
ag4
ag5
ag4
ag5
ag4
ag5
ag4
ag5
ag4
ag5
ag4
ag5
ag4
ag5
ag4
ag5
ag4
ag5
ag4
ag5
ag4
ag5
ag4
ag5
ag4
ag5
ag4
ag5
ag4
ag5
ag4
ag5
ag4
ag5
ag4
ag5
ag4
ag5
ag4
ag5
ag4
ag5
ag4
ag5
ag4
ag5
ag4
ag5
ag4
ag5
ag4
ag5
ag4
ag5
ag4
ag5
ag4
ag5
ag4
ag5
ag4
ag5
ag4
ag5
ag4
ag5
ag4
ag5
ag4
ag5
ag4
ag5
ag4
ag5
ag4
ag5
ag4
ag5
aa(lp10
g4
ag5
ag4
ag5
ag4
ag5
ag4
ag5
ag4
ag5
ag4
ag5
ag4
ag5
ag4
ag5
ag4
ag5
ag4
ag5
ag4
ag5
ag4
ag5
ag4
ag5
ag4
ag5
ag4
ag5
ag4
ag5
ag4
ag5
ag4
ag5
ag4
ag5
ag4
ag5
ag4
ag5
ag4
ag5
ag4
ag5
ag4
ag5
ag4
ag5
ag4
ag5
ag4
ag5
ag4
ag5
ag4
ag5
ag4
ag5
ag4
ag5
ag4
ag5
ag4
ag5
ag4
ag5
ag4
ag5
ag4
ag5
ag4
ag5
ag4
ag5
ag4
ag5
ag4
ag5
ag4
ag5
ag4
ag5
ag4
ag5
ag4
ag5
ag4
ag5
ag4
ag5
ag4
ag5
ag4
ag5
ag4
ag5
ag4
ag5
ag4
ag5
ag4
ag5
ag4
ag5
ag4
ag5
ag4
ag5
ag4
ag5
ag4
ag5
ag4
ag5
ag4
ag5
ag4
ag5
ag4
ag5
ag4
ag5
ag4
ag5
ag4
ag5
ag4
ag5
ag4
ag5
ag4
ag5
ag4
ag5
ag4
ag5
ag4
ag5
ag4
ag5
ag4
ag5
ag4
ag5
ag4
ag5
ag4
ag5
ag4
ag5
ag4
ag5
ag4
ag5
ag4
ag5
ag4
ag5
ag4
ag5
ag4
ag5
ag4
ag5
ag4
ag5
ag4
ag5
ag4
ag5
ag4
ag5
ag4
ag5
ag4
ag5
ag4
ag5
ag4
ag5
ag4
ag5
ag4
ag5
ag4
ag5
ag4
ag5
ag4
ag5
ag4
ag5
ag4
ag5
ag4
ag5
ag4
ag5
ag4
ag5
ag4
ag5
ag4
ag5
ag4
ag5
ag4
ag5
ag4
ag5
ag4
ag5
ag4
ag5
ag4
ag5
ag4
ag5
ag4
ag5
ag4
ag5
ag4
ag5
ag4
ag5
ag4
ag5
ag4
ag5
ag4
ag5
ag4
ag5
ag4
ag5
ag4
ag5
ag4
ag5
ag4
ag5
ag4
ag5
ag4
ag5
ag4
ag5
ag4
ag5
ag4
ag5
ag4
ag5
ag4
ag5
ag4
ag5
ag4
ag5
ag4
ag5
ag4
ag5
ag4
ag5
ag4
ag5
ag4
ag5
ag4
ag5
ag4
ag5
ag4
ag5
ag4
ag5
ag4
ag5
ag4
ag5
ag4
ag5
ag4
ag5
ag4
ag5
ag4
ag5
ag4
ag5
ag4
ag5
ag4
ag5
ag4
ag5
ag4
ag5
ag4
ag5
ag4
ag5
ag4
ag5
ag4
ag5
ag4
ag5
ag4
ag5
ag4
ag5
ag4
ag5
ag4
ag5
ag4
ag5
ag4
ag5
ag4
ag5
ag4
ag5
ag4
ag5
ag4
ag5
ag4
ag5
ag4
ag5
ag4
ag5
ag4
ag5
ag4
ag5
ag4
ag5
ag4
ag5
ag4
ag5
ag4
ag5
ag4
ag5
ag4
ag5
ag4
ag5
ag4
ag5
ag4
ag5
ag4
ag5
ag4
ag5
ag4
ag5
ag4
ag5
ag4
ag5
ag4
ag5
ag4
ag5
ag4
ag5
ag4
ag5
ag4
ag5
ag4
ag5
ag4
ag5
ag4
ag5
ag4
ag5
ag4
ag5
ag4
ag5
ag4
ag5
ag4
ag5
ag4
ag5
ag4
ag5
ag4
ag5
ag4
ag5
ag4
ag5
ag4
ag5
ag4
ag5
ag4
ag5
ag4
ag5
ag4
ag5
ag4
ag5
ag4
ag5
ag4
ag5
ag4
ag5
ag4
ag5
ag4
ag5
ag4
ag5
ag4
ag5
ag4
ag5
ag4
ag5
ag4
ag5
ag4
ag5
ag4
ag5
ag4
ag5
ag4
ag5
ag4
ag5
ag4
ag5
ag4
ag5
ag4
ag5
ag4
ag5
ag4
ag5
ag4
ag5
ag4
ag5
ag4
ag5
ag4
ag5
ag4
ag5
ag4
ag5
ag4
ag5
ag4
ag5
ag4
ag5
ag4
ag5
aasS'fist-up'
p11
(lp12
(lp13
g4
ag5
ag4
ag5
ag4
ag5
ag4
ag5
ag4
ag5
ag4
ag5
ag4
ag5
ag4
ag5
ag4
ag5
ag4
ag5
ag4
ag5
ag4
ag5
ag4
ag5
ag4
ag5
ag4
ag5
ag4
ag5
ag4
ag5
ag4
ag5
ag4
ag5
ag4
ag5
ag4
ag5
ag4
ag5
ag4
ag5
ag4
ag5
ag4
ag5
ag4
ag5
ag4
ag5
ag4
ag5
ag4
ag5
ag4
ag5
ag4
ag5
ag4
ag5
ag4
ag5
ag4
ag5
ag4
ag5
ag4
ag5
ag4
ag5
ag4
ag5
ag4
ag5
ag4
ag5
ag4
ag5
ag4
ag5
ag4
ag5
ag4
ag5
ag4
ag5
ag4
ag5
ag4
ag5
ag4
ag5
ag4
ag5
ag4
ag5
ag4
ag5
ag4
ag5
ag4
ag5
ag4
ag5
ag4
ag5
ag4
ag5
ag4
ag5
ag4
ag5
ag4
ag5
ag4
ag5
ag4
ag5
ag4
ag5
ag4
ag5
ag4
ag5
ag4
ag5
ag4
ag5
ag4
ag5
ag4
ag5
ag4
ag5
ag4
ag5
ag4
ag5
ag4
ag5
ag4
ag5
ag4
ag5
ag4
ag5
ag4
ag5
ag4
ag5
ag4
ag5
ag4
ag5
ag4
ag5
ag4
ag5
ag4
ag5
ag4
ag5
ag4
ag5
ag4
ag5
ag4
ag5
ag4
ag5
ag4
ag5
ag4
ag5
ag4
ag5
ag4
ag5
ag4
ag5
ag4
ag5
ag4
ag5
ag4
ag5
ag4
ag5
ag4
ag5
ag4
ag5
ag4
ag5
ag4
ag5
ag4
ag5
ag4
ag5
ag4
ag5
ag4
ag5
ag4
ag5
ag4
ag5
ag4
ag5
ag4
ag5
ag4
ag5
ag4
ag5
ag4
ag5
ag4
ag5
ag4
ag5
ag4
ag5
ag4
ag5
ag4
ag5
ag4
ag5
ag4
ag5
ag4
ag5
ag4
ag5
ag4
ag5
ag4
ag5
ag4
ag5
ag4
ag5
ag4
ag5
ag4
ag5
ag4
ag5
ag4
ag5
ag4
ag5
ag4
ag5
ag4
ag5
ag4
ag5
ag4
ag5
ag4
ag5
ag4
ag5
ag4
ag5
ag4
ag5
ag4
ag5
ag4
ag5
ag4
ag5
ag4
ag5
ag4
ag5
ag4
ag5
ag4
ag5
ag4
ag5
ag4
ag5
ag4
ag5
ag4
ag5
ag4
ag5
ag4
ag5
ag4
ag5
ag4
ag5
ag4
ag5
ag4
ag5
ag4
ag5
ag4
ag5
ag4
ag5
ag4
ag5
ag4
ag5
ag4
ag5
ag4
ag5
ag4
ag5
ag4
ag5
ag4
ag5
ag4
ag5
ag4
ag5
ag4
ag5
ag4
ag5
ag4
ag5
ag4
ag5
ag4
ag5
ag4
ag5
ag4
ag5
ag4
ag5
ag4
ag5
ag4
ag5
ag4
ag5
ag4
ag5
ag4
ag5
ag4
ag5
ag4
ag5
ag4
ag5
ag4
ag5
ag4
ag5
ag4
ag5
ag4
ag5
ag4
ag5
ag4
ag5
ag4
ag5
ag4
ag5
ag4
ag5
ag4
ag5
ag4
ag5
ag4
ag5
ag4
ag5
ag4
ag5
ag4
ag5
ag4
ag5
ag4
ag5
ag4
ag5
ag4
ag5
ag4
ag5
ag4
ag5
ag4
ag5
ag4
ag5
ag4
ag5
ag4
ag5
ag4
ag5
ag4
ag5
ag4
ag5
ag4
ag5
ag4
ag5
ag4
ag5
ag4
ag5
ag4
ag5
ag4
ag5
ag4
ag5
ag4
ag5
ag4
ag5
ag4
ag5
ag4
ag5
ag4
ag5
ag4
ag5
ag4
ag5
ag4
ag5
ag4
ag5
ag4
ag5
ag4
ag5
ag4
ag5
ag4
ag5
ag4
ag5
ag4
ag5
ag4
ag5
ag4
ag5
ag4
ag5
ag4
ag5
ag4
ag5
ag4
ag5
ag4
ag5
ag4
ag5
ag4
ag5
ag4
ag5
ag4
ag5
ag4
ag5
ag4
ag5
ag4
ag5
ag4
ag5
ag4
ag5
ag4
ag5
ag4
ag5
ag4
ag5
ag4
ag5
ag4
ag5
ag4
ag5
ag4
ag5
ag4
ag5
ag4
ag5
ag4
ag5
ag4
ag5
ag4
ag5
ag4
ag5
ag4
ag5
ag4
ag5
ag4
ag5
ag4
ag5
ag4
ag5
ag4
ag5
ag4
ag5
ag4
ag5
ag4
ag5
ag4
ag5
ag4
ag5
ag4
ag5
ag4
ag5
ag4
ag5
ag4
ag5
ag4
ag5
ag4
ag5
ag4
ag5
ag4
ag5
ag4
ag5
ag4
ag5
ag4
ag5
ag4
ag5
ag4
ag5
ag4
ag5
ag4
ag5
ag4
ag5
ag4
ag5
ag4
ag5
ag4
ag5
ag4
ag5
ag4
ag5
ag4
ag5
ag4
ag5
ag4
ag5
ag4
ag5
ag4
ag5
ag4
ag5
ag4
ag5
ag4
ag5
ag4
ag5
ag4
ag5
ag4
ag5
ag4
ag5
ag4
ag5
ag4
ag5
ag4
ag5
ag4
ag5
ag4
ag5
ag4
ag5
aa(lp14
g4
ag5
ag4
ag5
ag4
ag5
ag4
ag5
ag4
ag5
ag4
ag5
ag4
ag5
ag4
ag5
ag4
ag5
ag4
ag5
ag4
ag5
ag4
ag5
ag4
ag5
ag4
ag5
ag4
ag5
ag4
ag5
ag4
ag5
ag4
ag5
ag4
ag5
ag4
ag5
ag4
ag5
ag4
ag5
ag4
ag5
ag4
ag5
ag4
ag5
ag4
ag5
ag4
ag5
ag4
ag5
ag4
ag5
ag4
ag5
ag4
ag5
ag4
ag5
ag4
ag5
ag4
ag5
ag4
ag5
ag4
ag5
ag4
ag5
ag4
ag5
ag4
ag5
ag4
ag5
ag4
ag5
ag4
ag5
ag4
ag5
ag4
ag5
ag4
ag5
ag4
ag5
ag4
ag5
ag4
ag5
ag4
ag5
ag4
ag5
ag4
ag5
ag4
ag5
ag4
ag5
ag4
ag5
ag4
ag5
ag4
ag5
ag4
ag5
ag4
ag5
ag4
ag5
ag4
ag5
ag4
ag5
ag4
ag5
ag4
ag5
ag4
ag5
ag4
ag5
ag4
ag5
ag4
ag5
ag4
ag5
ag4
ag5
ag4
ag5
ag4
ag5
ag4
ag5
ag4
ag5
ag4
ag5
ag4
ag5
ag4
ag5
ag4
ag5
ag4
ag5
ag4
ag5
ag4
ag5
ag4
ag5
ag4
ag5
ag4
ag5
ag4
ag5
ag4
ag5
ag4
ag5
ag4
ag5
ag4
ag5
ag4
ag5
ag4
ag5
ag4
ag5
ag4
ag5
ag4
ag5
ag4
ag5
ag4
ag5
ag4
ag5
ag4
ag5
ag4
ag5
ag4
ag5
ag4
ag5
ag4
ag5
ag4
ag5
ag4
ag5
ag4
ag5
ag4
ag5
ag4
ag5
ag4
ag5
ag4
ag5
ag4
ag5
ag4
ag5
ag4
ag5
ag4
ag5
ag4
ag5
ag4
ag5
ag4
ag5
ag4
ag5
ag4
ag5
ag4
ag5
ag4
ag5
ag4
ag5
ag4
ag5
ag4
ag5
ag4
ag5
ag4
ag5
ag4
ag5
ag4
ag5
ag4
ag5
ag4
ag5
ag4
ag5
ag4
ag5
ag4
ag5
ag4
ag5
ag4
ag5
ag4
ag5
ag4
ag5
ag4
ag5
ag4
ag5
ag4
ag5
ag4
ag5
ag4
ag5
ag4
ag5
ag4
ag5
ag4
ag5
ag4
ag5
ag4
ag5
ag4
ag5
ag4
ag5
ag4
ag5
ag4
ag5
ag4
ag5
ag4
ag5
ag4
ag5
ag4
ag5
ag4
ag5
ag4
ag5
ag4
ag5
ag4
ag5
ag4
ag5
ag4
ag5
ag4
ag5
ag4
ag5
ag4
ag5
ag4
ag5
ag4
ag5
ag4
ag5
ag4
ag5
ag4
ag5
ag4
ag5
ag4
ag5
ag4
ag5
ag4
ag5
ag4
ag5
ag4
ag5
ag4
ag5
ag4
ag5
ag4
ag5
ag4
ag5
ag4
ag5
ag4
ag5
ag4
ag5
ag4
ag5
ag4
ag5
ag4
ag5
ag4
ag5
ag4
ag5
ag4
ag5
ag4
ag5
ag4
ag5
ag4
ag5
ag4
ag5
ag4
ag5
ag4
ag5
ag4
ag5
ag4
ag5
ag4
ag5
ag4
ag5
ag4
ag5
ag4
ag5
ag4
ag5
ag4
ag5
ag4
ag5
ag4
ag5
ag4
ag5
ag4
ag5
ag4
ag5
ag4
ag5
ag4
ag5
ag4
ag5
ag4
ag5
ag4
ag5
ag4
ag5
ag4
ag5
ag4
ag5
ag4
ag5
ag4
ag5
ag4
ag5
ag4
ag5
ag4
ag5
ag4
ag5
ag4
ag5
ag4
ag5
ag4
ag5
ag4
ag5
ag4
ag5
ag4
ag5
ag4
ag5
ag4
ag5
ag4
ag5
ag4
ag5
aas.