(dp0
S'fist-horizontal'
p1
(lp2
(lp3
(lp4
I14
aI49
aI0
aI-15
aI-43
aI-31
aI-8
aI1
aF0.97967529296875
aF-0.132080078125
aF0.06829833984375
aF-0.13433837890625
aa(lp5
I-66
aI-51
aI15
aI-11
aI-13
aI-24
aI-21
aI-32
aF0.97967529296875
aF-0.132080078125
aF0.06829833984375
aF-0.13433837890625
aag4
ag5
ag4
ag5
ag4
ag5
ag4
ag5
ag4
ag5
ag4
ag5
ag4
ag5
ag4
ag5
ag4
ag5
ag4
ag5
ag4
ag5
ag4
ag5
ag4
ag5
ag4
ag5
ag4
ag5
ag4
ag5
ag4
ag5
ag4
ag5
ag4
ag5
ag4
ag5
ag4
ag5
ag4
ag5
ag4
ag5
ag4
ag5
ag4
ag5
ag4
ag5
ag4
ag5
ag4
ag5
ag4
ag5
ag4
ag5
ag4
ag5
ag4
ag5
ag4
ag5
ag4
ag5
ag4
ag5
ag4
ag5
ag4
ag5
ag4
ag5
ag4
ag5
ag4
ag5
ag4
ag5
ag4
ag5
ag4
ag5
ag4
ag5
ag4
ag5
ag4
ag5
ag4
ag5
ag4
ag5
ag4
ag5
ag4
ag5
ag4
ag5
ag4
ag5
ag4
ag5
ag4
ag5
ag4
ag5
ag4
ag5
ag4
ag5
ag4
ag5
ag4
ag5
ag4
ag5
ag4
ag5
ag4
ag5
ag4
ag5
ag4
ag5
ag4
ag5
ag4
ag5
ag4
ag5
ag4
ag5
ag4
ag5
ag4
ag5
ag4
ag5
ag4
ag5
ag4
ag5
ag4
ag5
ag4
ag5
ag4
ag5
ag4
ag5
ag4
ag5
ag4
ag5
ag4
ag5
ag4
ag5
ag4
ag5
ag4
ag5
ag4
ag5
ag4
ag5
ag4
ag5
ag4
ag5
ag4
ag5
ag4
ag5
ag4
ag5
ag4
ag5
ag4
ag5
ag4
ag5
ag4
ag5
ag4
ag5
ag4
ag5
ag4
ag5
ag4
ag5
ag4
ag5
ag4
ag5
ag4
ag5
ag4
ag5
ag4
ag5
ag4
ag5
ag4
ag5
ag4
ag5
ag4
ag5
ag4
ag5
ag4
ag5
ag4
ag5
ag4
ag5
ag4
ag5
ag4
ag5
ag4
ag5
ag4
ag5
ag4
ag5
ag4
ag5
ag4
ag5
ag4
ag5
ag4
ag5
ag4
ag5
ag4
ag5
ag4
ag5
ag4
ag5
ag4
ag5
ag4
ag5
ag4
ag5
ag4
ag5
ag4
ag5
ag4
ag5
ag4
ag5
ag4
ag5
ag4
ag5
ag4
ag5
ag4
ag5
ag4
ag5
ag4
ag5
ag4
ag5
ag4
ag5
ag4
ag5
ag4
ag5
ag4
ag5
ag4
ag5
ag4
ag5
ag4
ag5
ag4
ag5
ag4
ag5
ag4
ag5
ag4
ag5
ag4
ag5
ag4
ag5
ag4
ag5
ag4
ag5
ag4
ag5
ag4
ag5
ag4
ag5
ag4
ag5
ag4
ag5
ag4
ag5
ag4
ag5
ag4
ag5
ag4
ag5
ag4
ag5
ag4
ag5
ag4
ag5
ag4
ag5
ag4
ag5
ag4
ag5
ag4
ag5
ag4
ag5
ag4
ag5
ag4
ag5
ag4
ag5
ag4
ag5
ag4
ag5
ag4
ag5
ag4
ag5
ag4
ag5
ag4
ag5
ag4
ag5
ag4
ag5
ag4
ag5
ag4
ag5
ag4
ag5
ag4
ag5
ag4
ag5
ag4
ag5
ag4
ag5
ag4
ag5
ag4
ag5
ag4
ag5
ag4
ag5
ag4
ag5
ag4
ag5
ag4
ag5
ag4
ag5
ag4
ag5
ag4
ag5
ag4
ag5
ag4
ag5
ag4
ag5
ag4
ag5
ag4
ag5
ag4
ag5
ag4
ag5
ag4
ag5
ag4
ag5
ag4
ag5
ag4
ag5
ag4
ag5
ag4
ag5
ag4
ag5
ag4
ag5
ag4
ag5
ag4
ag5
ag4
ag5
ag4
ag5
ag4
ag5
ag4
ag5
ag4
ag5
ag4
ag5
ag4
ag5
ag4
ag5
aa(lp6
g4
ag5
ag4
ag5
ag4
ag5
ag4
ag5
ag4
ag5
ag4
ag5
ag4
ag5
ag4
ag5
ag4
ag5
ag4
ag5
ag4
ag5
ag4
ag5
ag4
ag5
ag4
ag5
ag4
ag5
ag4
ag5
ag4
ag5
ag4
ag5
ag4
ag5
ag4
ag5
ag4
ag5
ag4
ag5
ag4
ag5
ag4
ag5
ag4
ag5
ag4
ag5
ag4
ag5
ag4
ag5
ag4
ag5
ag4
ag5
ag4
ag5
ag4
ag5
ag4
ag5
ag4
ag5
ag4
ag5
ag4
ag5
ag4
ag5
ag4
ag5
ag4
ag5
ag4
ag5
ag4
ag5
ag4
ag5
ag4
ag5
ag4
ag5
ag4
ag5
ag4
ag5
ag4
ag5
ag4
ag5
ag4
ag5
ag4
ag5
ag4
ag5
ag4
ag5
ag4
ag5
ag4
ag5
ag4
ag5
ag4
ag5
ag4
ag5
ag4
ag5
ag4
ag5
ag4
ag5
ag4
ag5
ag4
ag5
ag4
ag5
ag4
ag5
ag4
ag5
ag4
ag5
ag4
ag5
ag4
ag5
ag4
ag5
ag4
ag5
ag4
ag5
ag4
ag5
ag4
ag5
ag4
ag5
ag4
ag5
ag4
ag5
ag4
ag5
ag4
ag5
ag4
ag5
ag4
ag5
ag4
ag5
ag4
ag5
ag4
ag5
ag4
ag5
ag4
ag5
ag4
ag5
ag4
ag5
ag4
ag5
ag4
ag5
ag4
ag5
ag4
ag5
ag4
ag5
ag4
ag5
ag4
ag5
ag4
ag5
ag4
ag5
ag4
ag5
ag4
ag5
ag4
ag5
ag4
ag5
ag4
ag5
ag4
ag5
ag4
ag5
ag4
ag5
ag4
ag5
ag4
ag5
ag4
ag5
ag4
ag5
ag4
ag5
ag4
ag5
ag4
ag5
ag4
ag5
ag4
ag5
ag4
ag5
ag4
ag5
ag4
ag5
ag4
ag5
ag4
ag5
ag4
ag5
ag4
ag5
ag4
ag5
ag4
ag5
ag4
ag5
ag4
ag5
ag4
ag5
ag4
ag5
ag4
ag5
ag4
ag5
ag4
ag5
ag4
ag5
ag4
ag5
ag4
ag5
ag4
ag5
ag4
ag5
ag4
ag5
ag4
ag5
ag4
ag5
ag4
ag5
ag4
ag5
ag4
ag5
ag4
ag5
ag4
ag5
ag4
ag5
ag4
ag5
ag4
ag5
ag4
ag5
ag4
ag5
ag4
ag5
ag4
ag5
ag4
ag5
ag4
ag5
ag4
ag5
ag4
ag5
ag4
ag5
ag4
ag5
ag4
ag5
ag4
ag5
ag4
ag5
ag4
ag5
ag4
ag5
ag4
ag5
ag4
ag5
ag4
ag5
ag4
ag5
ag4
ag5
ag4
ag5
ag4
ag5
ag4
ag5
ag4
ag5
ag4
ag5
ag4
ag5
ag4
ag5
ag4
ag5
ag4
ag5
ag4
ag5
ag4
ag5
ag4
ag5
ag4
ag5
ag4
ag5
ag4
ag5
ag4
ag5
ag4
ag5
ag4
ag5
ag4
ag5
ag4
ag5
ag4
ag5
ag4
ag5
ag4
ag5
ag4
ag5
ag4
ag5
ag4
ag5
ag4
ag5
ag4
ag5
ag4
ag5
ag4
ag5
ag4
ag5
ag4
ag5
ag4
ag5
ag4
ag5
ag4
ag5
ag4
ag5
ag4
ag5
ag4
ag5
ag4
ag5
ag4
ag5
ag4
ag5
ag4
ag5
ag4
ag5
ag4
ag5
ag4
ag5
ag4
ag5
ag4
ag5
ag4
ag5
ag4
ag5
ag4
ag5
ag4
ag5
ag4
ag5
ag4
ag5
ag4
ag5
ag4
ag5
ag4
ag5
ag4
ag5
ag4
ag5
ag4
ag5
ag4
ag5
ag4
ag5
ag4
ag5
ag4
ag5
ag4
ag5
ag4
ag5
ag4
ag5
ag4
ag5
ag4
ag5
ag4
ag5
ag4
ag5
ag4
ag5
ag4
ag5
aasS'fist-down'
p7
(lp8
(lp9
g4
ag5
ag4
ag5
ag4
ag5
ag4
ag5
ag4
ag5
ag4
ag5
ag4
ag5
ag4
ag5
ag4
ag5
ag4
ag5
ag4
ag5
ag4
ag5
ag4
ag5
ag4
ag5
ag4
ag5
ag4
ag5
ag4
ag5
ag4
ag5
ag4
ag5
ag4
ag5
ag4
ag5
ag4
ag5
ag4
ag5
ag4
ag5
ag4
ag5
ag4
ag5
ag4
ag5
ag4
ag5
ag4
ag5
ag4
ag5
ag4
ag5
ag4
ag5
ag4
ag5
ag4
ag5
ag4
ag5
ag4
ag5
ag4
ag5
ag4
ag5
ag4
ag5
ag4
ag5
ag4
ag5
ag4
ag5
ag4
ag5
ag4
ag5
ag4
ag5
ag4
ag5
ag4
ag5
ag4
ag5
ag4
ag5
ag4
ag5
ag4
ag5
ag4
ag5
ag4
ag5
ag4
ag5
ag4
ag5
ag4
ag5
ag4
ag5
ag4
ag5
ag4
ag5
ag4
ag5
ag4
ag5
ag4
ag5
ag4
ag5
ag4
ag5
ag4
ag5
ag4
ag5
ag4
ag5
ag4
ag5
ag4
ag5
ag4
ag5
ag4
ag5
ag4
ag5
ag4
ag5
ag4
ag5
ag4
ag5
ag4
ag5
ag4
ag5
ag4
ag5
ag4
ag5
ag4
ag5
ag4
ag5
ag4
ag5
ag4
ag5
ag4
ag5
ag4
ag5
ag4
ag5
ag4
ag5
ag4
ag5
ag4
ag5
ag4
ag5
ag4
ag5
ag4
ag5
ag4
ag5
ag4
ag5
ag4
ag5
ag4
ag5
ag4
ag5
ag4
ag5
ag4
ag5
ag4
ag5
ag4
ag5
ag4
ag5
ag4
ag5
ag4
ag5
ag4
ag5
ag4
ag5
ag4
ag5
ag4
ag5
ag4
ag5
ag4
ag5
ag4
ag5
ag4
ag5
ag4
ag5
ag4
ag5
ag4
ag5
ag4
ag5
ag4
ag5
ag4
ag5
ag4
ag5
ag4
ag5
ag4
ag5
ag4
ag5
ag4
ag5
ag4
ag5
ag4
ag5
ag4
ag5
ag4
ag5
ag4
ag5
ag4
ag5
ag4
ag5
ag4
ag5
ag4
ag5
ag4
ag5
ag4
ag5
ag4
ag5
ag4
ag5
ag4
ag5
ag4
ag5
ag4
ag5
ag4
ag5
ag4
ag5
ag4
ag5
ag4
ag5
ag4
ag5
ag4
ag5
ag4
ag5
ag4
ag5
ag4
ag5
ag4
ag5
ag4
ag5
ag4
ag5
ag4
ag5
ag4
ag5
ag4
ag5
ag4
ag5
ag4
ag5
ag4
ag5
ag4
ag5
ag4
ag5
ag4
ag5
ag4
ag5
ag4
ag5
ag4
ag5
ag4
ag5
ag4
ag5
ag4
ag5
ag4
ag5
ag4
ag5
ag4
ag5
ag4
ag5
ag4
ag5
ag4
ag5
ag4
ag5
ag4
ag5
ag4
ag5
ag4
ag5
ag4
ag5
ag4
ag5
ag4
ag5
ag4
ag5
ag4
ag5
ag4
ag5
ag4
ag5
ag4
ag5
ag4
ag5
ag4
ag5
ag4
ag5
ag4
ag5
ag4
ag5
ag4
ag5
ag4
ag5
ag4
ag5
ag4
ag5
ag4
ag5
ag4
ag5
ag4
ag5
ag4
ag5
ag4
ag5
ag4
ag5
ag4
ag5
ag4
ag5
ag4
ag5
ag4
ag5
ag4
ag5
ag4
ag5
ag4
ag5
ag4
ag5
ag4
ag5
ag4
ag5
ag4
ag5
ag4
ag5
ag4
ag5
ag4
ag5
ag4
ag5
ag4
ag5
ag4
ag5
ag4
ag5
ag4
ag5
ag4
ag5
ag4
ag5
ag4
ag5
ag4
ag5
ag4
ag5
ag4
ag5
ag4
ag5
ag4
ag5
ag4
ag5
ag4
ag5
ag4
ag5
ag4
ag5
ag4
ag5
ag4
ag5
ag4
ag5
ag4
ag5
ag4
ag5
ag4
ag5
ag4
ag5
ag4
ag5
ag4
ag5
ag4
ag5
ag4
ag5
ag4
ag5
ag4
ag5
ag4
ag5
aa(lp10
g4
ag5
ag4
ag5
ag4
ag5
ag4
ag5
ag4
ag5
ag4
ag5
ag4
ag5
ag4
ag5
ag4
ag5
ag4
ag5
ag4
ag5
ag4
ag5
ag4
ag5
ag4
ag5
ag4
ag5
ag4
ag5
ag4
ag5
ag4
ag5
ag4
ag5
ag4
ag5
ag4
ag5
ag4
ag5
ag4
ag5
ag4
ag5
ag4
ag5
ag4
ag5
ag4
ag5
ag4
ag5
ag4
ag5
ag4
ag5
ag4
ag5
ag4
ag5
ag4
ag5
ag4
ag5
ag4
ag5
ag4
ag5
ag4
ag5
ag4
ag5
ag4
ag5
ag4
ag5
ag4
ag5
ag4
ag5
ag4
ag5
ag4
ag5
ag4
ag5
ag4
ag5
ag4
ag5
ag4
ag5
ag4
ag5
ag4
ag5
ag4
ag5
ag4
ag5
ag4
ag5
ag4
ag5
ag4
ag5
ag4
ag5
ag4
ag5
ag4
ag5
ag4
ag5
ag4
ag5
ag4
ag5
ag4
ag5
ag4
ag5
ag4
ag5
ag4
ag5
ag4
ag5
ag4
ag5
ag4
ag5
ag4
ag5
ag4
ag5
ag4
ag5
ag4
ag5
ag4
ag5
ag4
ag5
ag4
ag5
ag4
ag5
ag4
ag5
ag4
ag5
ag4
ag5
ag4
ag5
ag4
ag5
ag4
ag5
ag4
ag5
ag4
ag5
ag4
ag5
ag4
ag5
ag4
ag5
ag4
ag5
ag4
ag5
ag4
ag5
ag4
ag5
ag4
ag5
ag4
ag5
ag4
ag5
ag4
ag5
ag4
ag5
ag4
ag5
ag4
ag5
ag4
ag5
ag4
ag5
ag4
ag5
ag4
ag5
ag4
ag5
ag4
ag5
ag4
ag5
ag4
ag5
ag4
ag5
ag4
ag5
ag4
ag5
ag4
ag5
ag4
ag5
ag4
ag5
ag4
ag5
ag4
ag5
ag4
ag5
ag4
ag5
ag4
ag5
ag4
ag5
ag4
ag5
ag4
ag5
ag4
ag5
ag4
ag5
ag4
ag5
ag4
ag5
ag4
ag5
ag4
ag5
ag4
ag5
ag4
ag5
ag4
ag5
ag4
ag5
ag4
ag5
ag4
ag5
ag4
ag5
ag4
ag5
ag4
ag5
ag4
ag5
ag4
ag5
ag4
ag5
ag4
ag5
ag4
ag5
ag4
ag5
ag4
ag5
ag4
ag5
ag4
ag5
ag4
ag5
ag4
ag5
ag4
ag5
ag4
ag5
ag4
ag5
ag4
ag5
ag4
ag5
ag4
ag5
ag4
ag5
ag4
ag5
ag4
ag5
ag4
ag5
ag4
ag5
ag4
ag5
ag4
ag5
ag4
ag5
ag4
ag5
ag4
ag5
ag4
ag5
ag4
ag5
ag4
ag5
ag4
ag5
ag4
ag5
ag4
ag5
ag4
ag5
ag4
ag5
ag4
ag5
ag4
ag5
ag4
ag5
ag4
ag5
ag4
ag5
ag4
ag5
ag4
ag5
ag4
ag5
ag4
ag5
ag4
ag5
ag4
ag5
ag4
ag5
ag4
ag5
ag4
ag5
ag4
ag5
ag4
ag5
ag4
ag5
ag4
ag5
ag4
ag5
ag4
ag5
ag4
ag5
ag4
ag5
ag4
ag5
ag4
ag5
ag4
ag5
ag4
ag5
ag4
ag5
ag4
ag5
ag4
ag5
ag4
ag5
ag4
ag5
ag4
ag5
ag4
ag5
ag4
ag5
ag4
ag5
ag4
ag5
ag4
ag5
ag4
ag5
ag4
ag5
ag4
ag5
ag4
ag5
ag4
ag5
ag4
ag5
ag4
ag5
ag4
ag5
ag4
ag5
ag4
ag5
ag4
ag5
ag4
ag5
ag4
ag5
ag4
ag5
ag4
ag5
ag4
ag5
ag4
ag5
ag4
ag5
ag4
ag5
ag4
ag5
ag4
ag5
ag4
ag5
ag4
ag5
ag4
ag5
ag4
ag5
ag4
ag5
ag4
ag5
ag4
ag5
ag4
ag5
ag4
ag5
ag4
ag5
ag4
ag5
ag4
ag5
ag4
ag5
aasS'fist-up'
p11
(lp12
(lp13
g4
ag5
ag4
ag5
ag4
ag5
ag4
ag5
ag4
ag5
ag4
ag5
ag4
ag5
ag4
ag5
ag4
ag5
ag4
ag5
ag4
ag5
ag4
ag5
ag4
ag5
ag4
ag5
ag4
ag5
ag4
ag5
ag4
ag5
ag4
ag5
ag4
ag5
ag4
ag5
ag4
ag5
ag4
ag5
ag4
ag5
ag4
ag5
ag4
ag5
ag4
ag5
ag4
ag5
ag4
ag5
ag4
ag5
ag4
ag5
ag4
ag5
ag4
ag5
ag4
ag5
ag4
ag5
ag4
ag5
ag4
ag5
ag4
ag5
ag4
ag5
ag4
ag5
ag4
ag5
ag4
ag5
ag4
ag5
ag4
ag5
ag4
ag5
ag4
ag5
ag4
ag5
ag4
ag5
ag4
ag5
ag4
ag5
ag4
ag5
ag4
ag5
ag4
ag5
ag4
ag5
ag4
ag5
ag4
ag5
ag4
ag5
ag4
ag5
ag4
ag5
ag4
ag5
ag4
ag5
ag4
ag5
ag4
ag5
ag4
ag5
ag4
ag5
ag4
ag5
ag4
ag5
ag4
ag5
ag4
ag5
ag4
ag5
ag4
ag5
ag4
ag5
ag4
ag5
ag4
ag5
ag4
ag5
ag4
ag5
ag4
ag5
ag4
ag5
ag4
ag5
ag4
ag5
ag4
ag5
ag4
ag5
ag4
ag5
ag4
ag5
ag4
ag5
ag4
ag5
ag4
ag5
ag4
ag5
ag4
ag5
ag4
ag5
ag4
ag5
ag4
ag5
ag4
ag5
ag4
ag5
ag4
ag5
ag4
ag5
ag4
ag5
ag4
ag5
ag4
ag5
ag4
ag5
ag4
ag5
ag4
ag5
ag4
ag5
ag4
ag5
ag4
ag5
ag4
ag5
ag4
ag5
ag4
ag5
ag4
ag5
ag4
ag5
ag4
ag5
ag4
ag5
ag4
ag5
ag4
ag5
ag4
ag5
ag4
ag5
ag4
ag5
ag4
ag5
ag4
ag5
ag4
ag5
ag4
ag5
ag4
ag5
ag4
ag5
ag4
ag5
ag4
ag5
ag4
ag5
ag4
ag5
ag4
ag5
ag4
ag5
ag4
ag5
ag4
ag5
ag4
ag5
ag4
ag5
ag4
ag5
ag4
ag5
ag4
ag5
ag4
ag5
ag4
ag5
ag4
ag5
ag4
ag5
ag4
ag5
ag4
ag5
ag4
ag5
ag4
ag5
ag4
ag5
ag4
ag5
ag4
ag5
ag4
ag5
ag4
ag5
ag4
ag5
ag4
ag5
ag4
ag5
ag4
ag5
ag4
ag5
ag4
ag5
ag4
ag5
ag4
ag5
ag4
ag5
ag4
ag5
ag4
ag5
ag4
ag5
ag4
ag5
ag4
ag5
ag4
ag5
ag4
ag5
ag4
ag5
ag4
ag5
ag4
ag5
ag4
ag5
ag4
ag5
ag4
ag5
ag4
ag5
ag4
ag5
ag4
ag5
ag4
ag5
ag4
ag5
ag4
ag5
ag4
ag5
ag4
ag5
ag4
ag5
ag4
ag5
ag4
ag5
ag4
ag5
ag4
ag5
ag4
ag5
ag4
ag5
ag4
ag5
ag4
ag5
ag4
ag5
ag4
ag5
ag4
ag5
ag4
ag5
ag4
ag5
ag4
ag5
ag4
ag5
ag4
ag5
ag4
ag5
ag4
ag5
ag4
ag5
ag4
ag5
ag4
ag5
ag4
ag5
ag4
ag5
ag4
ag5
ag4
ag5
ag4
ag5
ag4
ag5
ag4
ag5
ag4
ag5
ag4
ag5
ag4
ag5
ag4
ag5
ag4
ag5
ag4
ag5
ag4
ag5
ag4
ag5
ag4
ag5
ag4
ag5
ag4
ag5
ag4
ag5
ag4
ag5
ag4
ag5
ag4
ag5
ag4
ag5
ag4
ag5
ag4
ag5
ag4
ag5
ag4
ag5
ag4
ag5
ag4
ag5
ag4
ag5
ag4
ag5
ag4
ag5
ag4
ag5
ag4
ag5
ag4
ag5
ag4
ag5
ag4
ag5
ag4
ag5
ag4
ag5
ag4
ag5
ag4
ag5
ag4
ag5
ag4
ag5
ag4
ag5
ag4
ag5
ag4
ag5
ag4
ag5
ag4
ag5
ag4
ag5
ag4
ag5
ag4
ag5
ag4
ag5
ag4
ag5
ag4
ag5
ag4
ag5
ag4
ag5
ag4
ag5
ag4
ag5
ag4
ag5
ag4
ag5
ag4
ag5
ag4
ag5
ag4
ag5
ag4
ag5
ag4
ag5
ag4
ag5
ag4
ag5
ag4
ag5
ag4
ag5
ag4
ag5
ag4
ag5
ag4
ag5
ag4
ag5
ag4
ag5
ag4
ag5
ag4
ag5
ag4
ag5
ag4
ag5
ag4
ag5
ag4
ag5
ag4
ag5
ag4
ag5
ag4
ag5
ag4
ag5
ag4
ag5
ag4
ag5
ag4
ag5
ag4
ag5
ag4
ag5
ag4
ag5
ag4
ag5
ag4
ag5
ag4
ag5
ag4
ag5
ag4
ag5
ag4
ag5
ag4
ag5
ag4
ag5
ag4
ag5
ag4
ag5
ag4
ag5
ag4
ag5
ag4
ag5
ag4
ag5
ag4
ag5
ag4
ag5
ag4
ag5
ag4
ag5
ag4
ag5
ag4
ag5
ag4
ag5
ag4
ag5
ag4
ag5
ag4
ag5
ag4
ag5
ag4
ag5
ag4
ag5
ag4
ag5
ag4
ag5
ag4
ag5
aa(lp14
g4
ag5
ag4
ag5
ag4
ag5
ag4
ag5
ag4
ag5
ag4
ag5
ag4
ag5
ag4
ag5
ag4
ag5
ag4
ag5
ag4
ag5
ag4
ag5
ag4
ag5
ag4
ag5
ag4
ag5
ag4
ag5
ag4
ag5
ag4
ag5
ag4
ag5
ag4
ag5
ag4
ag5
ag4
ag5
ag4
ag5
ag4
ag5
ag4
ag5
ag4
ag5
ag4
ag5
ag4
ag5
ag4
ag5
ag4
ag5
ag4
ag5
ag4
ag5
ag4
ag5
ag4
ag5
ag4
ag5
ag4
ag5
ag4
ag5
ag4
ag5
ag4
ag5
ag4
ag5
ag4
ag5
ag4
ag5
ag4
ag5
ag4
ag5
ag4
ag5
ag4
ag5
ag4
ag5
ag4
ag5
ag4
ag5
ag4
ag5
ag4
ag5
ag4
ag5
ag4
ag5
ag4
ag5
ag4
ag5
ag4
ag5
ag4
ag5
ag4
ag5
ag4
ag5
ag4
ag5
ag4
ag5
ag4
ag5
ag4
ag5
ag4
ag5
ag4
ag5
ag4
ag5
ag4
ag5
ag4
ag5
ag4
ag5
ag4
ag5
ag4
ag5
ag4
ag5
ag4
ag5
ag4
ag5
ag4
ag5
ag4
ag5
ag4
ag5
ag4
ag5
ag4
ag5
ag4
ag5
ag4
ag5
ag4
ag5
ag4
ag5
ag4
ag5
ag4
ag5
ag4
ag5
ag4
ag5
ag4
ag5
ag4
ag5
ag4
ag5
ag4
ag5
ag4
ag5
ag4
ag5
ag4
ag5
ag4
ag5
ag4
ag5
ag4
ag5
ag4
ag5
ag4
ag5
ag4
ag5
ag4
ag5
ag4
ag5
ag4
ag5
ag4
ag5
ag4
ag5
ag4
ag5
ag4
ag5
ag4
ag5
ag4
ag5
ag4
ag5
ag4
ag5
ag4
ag5
ag4
ag5
ag4
ag5
ag4
ag5
ag4
ag5
ag4
ag5
ag4
ag5
ag4
ag5
ag4
ag5
ag4
ag5
ag4
ag5
ag4
ag5
ag4
ag5
ag4
ag5
ag4
ag5
ag4
ag5
ag4
ag5
ag4
ag5
ag4
ag5
ag4
ag5
ag4
ag5
ag4
ag5
ag4
ag5
ag4
ag5
ag4
ag5
ag4
ag5
ag4
ag5
ag4
ag5
ag4
ag5
ag4
ag5
ag4
ag5
ag4
ag5
ag4
ag5
ag4
ag5
ag4
ag5
ag4
ag5
ag4
ag5
ag4
ag5
ag4
ag5
ag4
ag5
ag4
ag5
ag4
ag5
ag4
ag5
ag4
ag5
ag4
ag5
ag4
ag5
ag4
ag5
ag4
ag5
ag4
ag5
ag4
ag5
ag4
ag5
ag4
ag5
ag4
ag5
ag4
ag5
ag4
ag5
ag4
ag5
ag4
ag5
ag4
ag5
ag4
ag5
ag4
ag5
ag4
ag5
ag4
ag5
ag4
ag5
ag4
ag5
ag4
ag5
ag4
ag5
ag4
ag5
ag4
ag5
ag4
ag5
ag4
ag5
ag4
ag5
ag4
ag5
ag4
ag5
ag4
ag5
ag4
ag5
ag4
ag5
ag4
ag5
ag4
ag5
ag4
ag5
ag4
ag5
ag4
ag5
ag4
ag5
ag4
ag5
ag4
ag5
ag4
ag5
ag4
ag5
ag4
ag5
ag4
ag5
ag4
ag5
ag4
ag5
ag4
ag5
ag4
ag5
ag4
ag5
ag4
ag5
ag4
ag5
ag4
ag5
ag4
ag5
ag4
ag5
ag4
ag5
ag4
ag5
ag4
ag5
ag4
ag5
ag4
ag5
ag4
ag5
ag4
ag5
ag4
ag5
ag4
ag5
ag4
ag5
aas.