(dp0
S'fist-horizontal'
p1
(lp2
(lp3
(I27
I-17
I0
I-30
I-120
I-77
I-8
I-1
tp4
a(I6
I58
I-8
I-17
I-11
I3
I3
I-9
tp5
a(lp6
F0.9671630859375
aF0.0255126953125
aF0.00970458984375
aF0.25262451171875
aa(I-27
I-38
I6
I-7
I12
I-14
I-15
I-5
tp7
a(I-10
I11
I0
I34
I87
I32
I18
I-5
tp8
a(lp9
F0.9669189453125
aF0.02471923828125
aF0.0107421875
aF0.25347900390625
aa(I16
I-15
I-24
I-15
I-56
I-23
I6
I-1
tp10
a(I16
I62
I12
I-6
I-8
I-5
I-4
I-6
tp11
a(I-5
I-4
I0
I2
I-8
I-8
I-7
I-8
tp12
a(I-29
I-28
I-5
I-13
I-2
I11
I31
I13
tp13
a(lp14
F0.96636962890625
aF0.02459716796875
aF0.00982666015625
aF0.255615234375
aa(I7
I31
I-16
I0
I44
I20
I25
I3
tp15
a(I-27
I-12
I12
I49
I78
I-1
I1
I-11
tp16
a(I22
I21
I0
I-22
I-65
I-12
I24
I6
tp17
a(I-11
I-95
I-36
I-5
I26
I-10
I-34
I-4
tp18
a(lp19
F0.96624755859375
aF0.02398681640625
aF0.0130615234375
aF0.2559814453125
aa(I24
I-72
I-14
I27
I64
I10
I-2
I-2
tp20
a(I-48
I-23
I5
I-8
I11
I5
I10
I-5
tp21
a(I27
I-33
I21
I15
I2
I-2
I2
I-6
tp22
a(I-36
I21
I-27
I-5
I-33
I-27
I-6
I-6
tp23
a(lp24
F0.96588134765625
aF0.0260009765625
aF0.00543212890625
aF0.25750732421875
aa(I54
I26
I18
I6
I21
I18
I-1
I3
tp25
a(I47
I-62
I-22
I-15
I6
I0
I1
I-3
tp26
a(I-3
I-16
I-20
I5
I22
I6
I-1
I-20
tp27
a(I-31
I0
I19
I-11
I5
I-4
I4
I7
tp28
a(lp29
F0.9659423828125
aF0.02825927734375
aF0.00384521484375
aF0.2569580078125
aa(I-5
I38
I-6
I13
I-4
I-2
I-2
I-4
tp30
a(I3
I-8
I14
I6
I14
I22
I-7
I0
tp31
a(I-17
I2
I-17
I-16
I24
I34
I-6
I0
tp32
a(I27
I-20
I56
I30
I7
I-6
I4
I-1
tp33
a(lp34
F0.9656982421875
aF0.02581787109375
aF0.01171875
aF0.25799560546875
aa(I32
I17
I2
I5
I-19
I4
I8
I2
tp35
a(I-35
I-48
I-15
I-21
I5
I14
I1
I2
tp36
a(I18
I-66
I4
I1
I-24
I-15
I-14
I-18
tp37
a(I14
I21
I-7
I-3
I8
I10
I-3
I4
tp38
a(lp39
F0.96588134765625
aF0.02593994140625
aF0.01580810546875
aF0.25714111328125
aa(I-9
I26
I14
I17
I-24
I-9
I6
I-3
tp40
a(I21
I0
I-6
I-7
I-11
I-13
I6
I18
tp41
a(lp42
F0.9656982421875
aF0.02557373046875
aF0.01519775390625
aF0.25787353515625
aa(I-10
I45
I-8
I-26
I-13
I4
I-7
I-4
tp43
a(I3
I-46
I-15
I-4
I-16
I4
I-10
I-12
tp44
a(I19
I-15
I-4
I12
I63
I18
I10
I9
tp45
a(I-18
I-15
I-10
I1
I-14
I13
I-7
I-16
tp46
a(I-11
I-69
I-6
I-12
I-4
I-14
I-13
I7
tp47
a(I-1
I3
I-21
I9
I18
I19
I1
I-14
tp48
a(lp49
F0.96636962890625
aF0.02630615234375
aF0.01629638671875
aF0.255126953125
aa(I-27
I1
I31
I13
I31
I5
I6
I-5
tp50
a(I4
I94
I0
I-11
I-18
I-16
I1
I11
tp51
a(I-22
I16
I16
I6
I-15
I4
I16
I-10
tp52
a(I31
I-8
I24
I-2
I38
I12
I3
I10
tp53
a(lp54
F0.96624755859375
aF0.026611328125
aF0.01666259765625
aF0.255615234375
aa(I-9
I-16
I8
I33
I16
I1
I-7
I13
tp55
a(I30
I0
I11
I15
I21
I13
I3
I5
tp56
a(I-83
I10
I-8
I-28
I-7
I-8
I-13
I-11
tp57
a(I111
I-47
I-8
I2
I42
I8
I14
I15
tp58
a(lp59
F0.96636962890625
aF0.02667236328125
aF0.01678466796875
aF0.2550048828125
aa(I-4
I64
I-5
I-1
I73
I3
I-2
I1
tp60
a(I6
I-28
I-5
I27
I-13
I2
I-7
I-7
tp61
a(lp62
F0.96636962890625
aF0.02752685546875
aF0.0174560546875
aF0.25482177734375
aa(I-29
I-20
I-15
I-62
I-58
I-20
I-7
I-4
tp63
a(I8
I-79
I7
I64
I6
I-22
I-14
I-6
tp64
a(I0
I49
I-7
I-10
I26
I3
I3
I-13
tp65
a(I17
I-40
I-23
I-26
I-42
I-6
I-17
I4
tp66
a(I-7
I-42
I-14
I20
I3
I8
I-6
I6
tp67
a(I43
I33
I8
I-25
I-30
I-3
I-2
I2
tp68
a(lp69
F0.9666748046875
aF0.02838134765625
aF0.01715087890625
aF0.25372314453125
aa(I-90
I-17
I-8
I-2
I-12
I-2
I-13
I-13
tp70
a(I33
I-45
I11
I-10
I-8
I-6
I10
I-4
tp71
a(I-34
I84
I-8
I-11
I32
I23
I7
I7
tp72
a(I45
I-8
I10
I41
I50
I-1
I-3
I-3
tp73
a(I54
I43
I-7
I-3
I-21
I-11
I2
I7
tp74
a(I-44
I35
I-5
I-26
I-17
I-9
I-17
I-6
tp75
a(I47
I-49
I-7
I8
I29
I3
I-8
I-11
tp76
a(I1
I10
I14
I37
I53
I26
I7
I24
tp77
a(lp78
F0.96685791015625
aF0.02874755859375
aF0.0174560546875
aF0.25299072265625
aa(I-1
I44
I3
I-34
I-85
I-18
I1
I-15
tp79
a(I0
I23
I16
I3
I2
I-3
I5
I2
tp80
a(I-19
I14
I-2
I29
I16
I9
I-2
I-3
tp81
a(I18
I-1
I6
I-16
I-19
I-14
I13
I7
tp82
a(lp83
F0.9669189453125
aF0.0289306640625
aF0.017333984375
aF0.25274658203125
aa(I-9
I1
I-7
I-14
I31
I16
I-3
I0
tp84
a(I22
I-8
I-12
I-19
I-26
I-11
I-3
I-6
tp85
a(I7
I0
I11
I33
I0
I4
I4
I14
tp86
a(I11
I18
I-4
I-10
I-19
I-18
I3
I-9
tp87
a(lp88
F0.9666748046875
aF0.0284423828125
aF0.01763916015625
aF0.25360107421875
aa(I-21
I18
I-8
I-10
I21
I8
I-11
I-5
tp89
a(I27
I-30
I-13
I18
I29
I8
I0
I4
tp90
a(I-33
I9
I27
I1
I9
I-3
I4
I-8
tp91
a(I5
I-14
I-7
I5
I21
I16
I2
I7
tp92
a(lp93
F0.966796875
aF0.0284423828125
aF0.01812744140625
aF0.2530517578125
aa(I-20
I-34
I-13
I42
I-10
I2
I15
I-5
tp94
a(I3
I79
I5
I-1
I4
I-13
I-2
I6
tp95
a(I50
I-4
I-5
I14
I33
I19
I-5
I-4
tp96
a(I-57
I-12
I20
I-2
I16
I3
I26
I17
tp97
a(lp98
F0.96728515625
aF0.02679443359375
aF0.0216064453125
aF0.251220703125
aa(I34
I-33
I-39
I-12
I-20
I-20
I-14
I-11
tp99
a(I-15
I49
I10
I14
I8
I8
I6
I-3
tp100
a(I27
I20
I1
I-17
I-45
I-20
I-14
I-1
tp101
a(I-6
I55
I0
I17
I35
I11
I14
I0
tp102
a(lp103
F0.9671630859375
aF0.02667236328125
aF0.0220947265625
aF0.251708984375
aa(I-14
I8
I15
I-13
I11
I-2
I6
I-4
tp104
a(I18
I0
I-7
I15
I19
I20
I4
I3
tp105
a(I-23
I-1
I-17
I5
I-19
I-22
I-2
I1
tp106
a(I74
I9
I27
I4
I49
I4
I-6
I3
tp107
a(lp108
F0.96685791015625
aF0.0274658203125
aF0.0230712890625
aF0.2525634765625
aa(I-19
I60
I12
I-4
I43
I-7
I7
I-3
tp109
a(I-27
I6
I-8
I21
I-1
I25
I-5
I-9
tp110
a(I25
I-9
I-19
I5
I-11
I-11
I13
I4
tp111
a(I30
I-46
I5
I-14
I6
I-2
I-10
I-2
tp112
a(lp113
F0.96673583984375
aF0.02801513671875
aF0.02313232421875
aF0.2530517578125
aa(I23
I-6
I20
I-8
I-35
I-2
I-1
I-9
tp114
a(I-83
I-20
I-6
I-13
I13
I0
I-16
I-3
tp115
a(lp116
F0.96661376953125
aF0.029296875
aF0.023193359375
aF0.2532958984375
aa(I-36
I-37
I-6
I28
I1
I-3
I31
I6
tp117
a(I52
I-22
I-3
I-6
I-6
I-10
I-9
I3
tp118
a(I8
I40
I38
I12
I-9
I-8
I-3
I-3
tp119
a(I18
I4
I-18
I-25
I-41
I-14
I-2
I9
tp120
a(I40
I30
I-11
I22
I-10
I-4
I-5
I-6
tp121
a(I-7
I12
I11
I4
I23
I17
I4
I4
tp122
a(lp123
F0.966552734375
aF0.02996826171875
aF0.0247802734375
aF0.25347900390625
aa(I8
I-31
I-17
I-4
I-10
I-12
I0
I4
tp124
a(I-36
I-25
I16
I-4
I16
I12
I-3
I-9
tp125
a(I-1
I-5
I26
I-9
I18
I-3
I-3
I7
tp126
a(I-12
I29
I-17
I18
I-3
I-13
I5
I2
tp127
a(I-25
I20
I-8
I-16
I-5
I-43
I-11
I1
tp128
a(I60
I14
I-17
I29
I11
I22
I1
I-1
tp129
a(lp130
F0.96685791015625
aF0.02862548828125
aF0.025634765625
aF0.252197265625
aa(I11
I0
I-2
I-37
I-23
I-4
I6
I9
tp131
a(I-36
I-8
I4
I-27
I-47
I-23
I-5
I-7
tp132
a(I-1
I44
I7
I21
I28
I3
I6
I4
tp133
a(I-4
I-12
I5
I15
I51
I31
I12
I3
tp134
a(lp135
F0.967041015625
aF0.0289306640625
aF0.026123046875
aF0.25146484375
aa(I29
I-5
I-17
I5
I-68
I-32
I-16
I-1
tp136
a(I-17
I12
I4
I-1
I10
I-14
I-11
I3
tp137
a(I-9
I-37
I0
I11
I0
I25
I1
I1
tp138
a(I37
I32
I-6
I6
I22
I-2
I-4
I2
tp139
a(lp140
F0.967041015625
aF0.0289306640625
aF0.0267333984375
aF0.25128173828125
aa(I-50
I-22
I-23
I-2
I40
I31
I-7
I4
tp141
a(I27
I-48
I10
I-11
I14
I8
I8
I-6
tp142
a(I26
I12
I-7
I0
I-30
I4
I11
I12
tp143
a(I-19
I11
I20
I21
I26
I-5
I2
I-15
tp144
a(lp145
F0.9671630859375
aF0.030029296875
aF0.0283203125
aF0.25054931640625
aa(I-8
I21
I-21
I-24
I-20
I-1
I-21
I0
tp146
a(I4
I50
I16
I12
I8
I4
I11
I-2
tp147
a(I4
I-32
I-2
I-7
I-14
I-12
I-2
I-1
tp148
a(I34
I-16
I20
I9
I67
I43
I1
I0
tp149
a(lp150
F0.96710205078125
aF0.03070068359375
aF0.02728271484375
aF0.25091552734375
aa(I10
I-28
I-6
I7
I31
I12
I14
I-2
tp151
a(I19
I13
I14
I0
I-10
I-23
I-5
I9
tp152
a(I-59
I-57
I-25
I-2
I-32
I-15
I-7
I-11
tp153
a(I-1
I11
I16
I-7
I18
I7
I-1
I5
tp154
a(lp155
F0.96710205078125
aF0.0302734375
aF0.02642822265625
aF0.2509765625
aa(I-13
I-26
I-6
I-36
I-36
I-23
I-21
I-13
tp156
a(I1
I24
I7
I7
I71
I26
I19
I1
tp157
a(I29
I-55
I-13
I-24
I-46
I-23
I-16
I7
tp158
a(I-5
I-36
I-10
I44
I59
I-2
I-10
I-5
tp159
a(lp160
F0.96710205078125
aF0.03082275390625
aF0.02630615234375
aF0.2509765625
aa(I-1
I-2
I-14
I-21
I-13
I-27
I-25
I-7
tp161
a(I-21
I-55
I8
I20
I9
I18
I10
I1
tp162
a(I-11
I110
I18
I10
I17
I1
I9
I14
tp163
a(I0
I-57
I-29
I-3
I25
I24
I-7
I-5
tp164
a(lp165
F0.96710205078125
aF0.03094482421875
aF0.02691650390625
aF0.2509765625
aa(I-26
I-9
I21
I11
I4
I-5
I21
I4
tp166
a(I-4
I-10
I-2
I-22
I-28
I-28
I-16
I-8
tp167
a(I35
I51
I5
I-27
I-71
I-17
I-6
I0
tp168
a(I-16
I-9
I15
I17
I33
I9
I-11
I-11
tp169
a(lp170
F0.967041015625
aF0.03106689453125
aF0.02618408203125
aF0.25115966796875
aa(I-55
I-3
I-3
I15
I23
I3
I8
I6
tp171
a(I78
I-7
I-3
I-27
I-3
I-12
I7
I14
tp172
a(I-41
I-30
I-23
I41
I26
I1
I-5
I-14
tp173
a(I-5
I27
I1
I-30
I-23
I-1
I2
I-7
tp174
a(lp175
F0.96728515625
aF0.031494140625
aF0.02679443359375
aF0.250244140625
aa(I22
I-52
I14
I25
I20
I15
I-2
I6
tp176
a(I3
I56
I-6
I-33
I-74
I-9
I-3
I-6
tp177
a(I-27
I92
I5
I7
I5
I-9
I-1
I0
tp178
a(I-9
I-28
I-38
I1
I6
I10
I0
I-20
tp179
a(lp180
F0.96722412109375
aF0.031494140625
aF0.02734375
aF0.25042724609375
aa(I13
I-4
I9
I-11
I-31
I4
I-7
I-8
tp181
a(I9
I-31
I-19
I5
I-17
I-10
I8
I8
tp182
a(lp183
F0.96746826171875
aF0.0316162109375
aF0.02728271484375
aF0.2493896484375
aa(I-81
I-19
I29
I3
I-7
I-2
I10
I-3
tp184
a(I83
I65
I-15
I-7
I39
I5
I11
I8
tp185
a(I15
I11
I30
I13
I1
I2
I-13
I-4
tp186
a(I6
I21
I-3
I-17
I-4
I4
I6
I14
tp187
a(I48
I11
I-27
I-9
I25
I13
I1
I8
tp188
a(I-67
I-16
I2
I11
I7
I-9
I-4
I-3
tp189
a(lp190
F0.9674072265625
aF0.03289794921875
aF0.02740478515625
aF0.2493896484375
aa(I38
I24
I-21
I-9
I-14
I-2
I5
I-8
tp191
a(I-43
I-53
I-2
I18
I14
I1
I-6
I0
tp192
a(I39
I4
I-17
I-19
I-50
I-20
I-16
I-6
tp193
a(I-12
I-7
I28
I11
I18
I12
I11
I9
tp194
a(I-55
I30
I2
I2
I-42
I-6
I-4
I-8
tp195
a(I20
I25
I4
I-21
I-30
I-16
I-8
I-1
tp196
a(I-41
I-31
I-7
I-3
I-27
I-13
I-1
I-5
tp197
a(I5
I-102
I-28
I-15
I17
I-11
I-15
I-8
tp198
a(lp199
F0.96746826171875
aF0.03265380859375
aF0.0274658203125
aF0.24920654296875
aa(I29
I-15
I0
I-12
I14
I1
I22
I10
tp200
a(I-27
I34
I11
I33
I-12
I10
I-16
I-7
tp201
a(I-53
I-15
I0
I23
I43
I-7
I-16
I-7
tp202
a(I13
I-9
I3
I-23
I-76
I-2
I0
I0
tp203
a(lp204
F0.9671630859375
aF0.0323486328125
aF0.02752685546875
aF0.25048828125
aa(I-41
I6
I1
I-7
I13
I2
I-9
I-4
tp205
a(I7
I-12
I-22
I0
I-17
I-21
I1
I-1
tp206
a(I63
I12
I17
I-5
I19
I9
I4
I8
tp207
a(I-82
I-12
I-7
I9
I32
I21
I11
I-4
tp208
a(lp209
F0.9671630859375
aF0.03143310546875
aF0.02783203125
aF0.2506103515625
aa(I-53
I-38
I-25
I11
I24
I17
I-1
I3
tp210
a(I35
I7
I22
I9
I9
I-5
I12
I4
tp211
a(I-23
I-18
I11
I7
I13
I0
I-10
I-4
tp212
a(I1
I28
I0
I31
I55
I9
I-2
I7
tp213
a(lp214
F0.96697998046875
aF0.031005859375
aF0.02764892578125
aF0.25128173828125
aa(I9
I52
I29
I-6
I-25
I-26
I3
I13
tp215
a(I-49
I-43
I8
I-31
I-34
I0
I-26
I-17
tp216
a(I1
I-3
I-6
I5
I33
I-9
I6
I5
tp217
a(I-15
I-75
I7
I-13
I-15
I17
I5
I-7
tp218
a(lp219
F0.9671630859375
aF0.03057861328125
aF0.02679443359375
aF0.250732421875
aa(I40
I17
I-10
I-8
I-5
I-11
I-10
I5
tp220
a(I-58
I33
I13
I12
I27
I-6
I11
I6
tp221
a(I-7
I-2
I23
I15
I33
I5
I-11
I4
tp222
a(I2
I-26
I-18
I-4
I-15
I1
I0
I-11
tp223
a(lp224
F0.96722412109375
aF0.03216552734375
aF0.02685546875
aF0.25030517578125
aa(I-18
I-17
I-12
I-1
I27
I-1
I-12
I1
tp225
a(I22
I-14
I-6
I-44
I-65
I-6
I-6
I-4
tp226
a(I4
I30
I12
I-26
I-56
I-43
I-6
I2
tp227
a(I-21
I-5
I-4
I20
I9
I1
I-12
I-13
tp228
a(lp229
F0.9669189453125
aF0.03155517578125
aF0.0272216796875
aF0.25146484375
aa(I32
I18
I-16
I-11
I11
I16
I-8
I11
tp230
a(I-12
I-22
I9
I1
I-52
I-24
I2
I5
tp231
a(I-5
I2
I-16
I21
I84
I17
I6
I-5
tp232
a(I28
I-11
I-3
I-16
I-58
I13
I-3
I1
tp233
a(lp234
F0.96697998046875
aF0.03118896484375
aF0.0269775390625
aF0.25128173828125
aa(I-9
I-66
I11
I-15
I-36
I-21
I-12
I12
tp235
a(I51
I28
I-28
I1
I9
I6
I-5
I-14
tp236
a(lp237
F0.9671630859375
aF0.03082275390625
aF0.02667236328125
aF0.2506103515625
aa(I20
I-26
I-24
I11
I23
I11
I7
I3
tp238
a(I-3
I17
I5
I5
I5
I25
I-2
I0
tp239
a(lp240
F0.96746826171875
aF0.0308837890625
aF0.02679443359375
aF0.24951171875
aa(I46
I55
I-3
I-14
I7
I-18
I-3
I15
tp241
a(I-32
I-51
I-23
I-12
I-39
I-4
I-2
I-11
tp242
a(I1
I-16
I-4
I-1
I-10
I-13
I20
I6
tp243
a(I-25
I-9
I11
I-46
I-21
I-16
I-15
I-2
tp244
a(I49
I10
I-39
I24
I20
I10
I4
I-7
tp245
a(I19
I1
I16
I17
I30
I3
I-4
I9
tp246
a(lp247
F0.96759033203125
aF0.03094482421875
aF0.0267333984375
aF0.2490234375
aa(I-17
I21
I7
I6
I1
I21
I13
I-9
tp248
a(I33
I-22
I-20
I-13
I-11
I-6
I-1
I2
tp249
a(I17
I-74
I-3
I-8
I-103
I-8
I7
I5
tp250
a(I-100
I17
I26
I-32
I7
I-35
I-28
I-9
tp251
a(lp252
F0.967529296875
aF0.03167724609375
aF0.02685546875
aF0.249267578125
aa(I29
I1
I-18
I17
I-11
I-3
I-9
I-13
tp253
a(I18
I24
I5
I18
I20
I2
I9
I7
tp254
a(I-25
I5
I-14
I1
I66
I3
I-3
I4
tp255
a(I33
I-26
I-6
I24
I-15
I17
I17
I1
tp256
a(I34
I6
I-5
I-1
I-9
I-6
I-7
I3
tp257
a(I26
I14
I-23
I-4
I1
I-5
I0
I-8
tp258
a(lp259
F0.96746826171875
aF0.03204345703125
aF0.0269775390625
aF0.249267578125
aa(I-40
I17
I30
I9
I-12
I-3
I8
I13
tp260
a(I2
I-14
I-9
I1
I3
I11
I-15
I-6
tp261
a(I11
I-27
I-10
I-5
I34
I10
I-3
I-8
tp262
a(I19
I15
I-1
I4
I-18
I0
I7
I10
tp263
a(I-73
I-18
I-6
I1
I2
I-7
I-1
I-13
tp264
a(I59
I27
I16
I-13
I2
I2
I-14
I4
tp265
a(I-67
I26
I-26
I12
I34
I11
I6
I-7
tp266
a(I32
I-8
I11
I-13
I23
I14
I16
I12
tp267
a(lp268
F0.96722412109375
aF0.0330810546875
aF0.0284423828125
aF0.24993896484375
aa(I-9
I2
I2
I52
I-2
I2
I-4
I6
tp269
a(I-13
I4
I-7
I-8
I-60
I-21
I-8
I-11
tp270
a(I-13
I38
I-14
I-11
I10
I-7
I-16
I-6
tp271
a(I-19
I-45
I1
I19
I31
I3
I12
I0
tp272
a(lp273
F0.96734619140625
aF0.0330810546875
aF0.02838134765625
aF0.24951171875
aa(I3
I40
I15
I-22
I-3
I0
I-11
I-5
tp274
a(I59
I-54
I-6
I26
I-4
I20
I-7
I6
tp275
a(I21
I21
I-12
I-41
I-44
I-39
I-10
I-12
tp276
a(I-13
I23
I7
I45
I27
I3
I-14
I0
tp277
a(lp278
F0.96710205078125
aF0.032470703125
aF0.02789306640625
aF0.2506103515625
aa(I2
I-33
I-6
I-10
I-26
I-18
I-4
I4
tp279
a(I-5
I-3
I-17
I12
I7
I-3
I-9
I-12
tp280
a(I25
I17
I14
I-6
I-11
I1
I3
I-3
tp281
a(I-15
I33
I10
I-7
I1
I-4
I-10
I-9
tp282
a(lp283
F0.9671630859375
aF0.0325927734375
aF0.02801513671875
aF0.250244140625
aa(I-8
I-25
I-30
I1
I16
I13
I28
I14
tp284
a(I-5
I-5
I-4
I-11
I-29
I-29
I-1
I1
tp285
a(I-2
I-37
I-20
I-13
I30
I16
I-2
I2
tp286
a(I-35
I2
I0
I24
I-2
I-5
I-7
I-10
tp287
a(lp288
F0.96722412109375
aF0.03302001953125
aF0.0284423828125
aF0.25
aa(I1
I-17
I27
I-10
I-17
I0
I-18
I-14
tp289
a(I69
I33
I-8
I13
I25
I15
I13
I11
tp290
a(I21
I-9
I-4
I6
I-1
I2
I4
I3
tp291
a(I-49
I37
I2
I12
I51
I18
I9
I-4
tp292
a(lp293
F0.96734619140625
aF0.03277587890625
aF0.028564453125
aF0.24957275390625
aa(I15
I-4
I-36
I-20
I-15
I1
I3
I2
tp294
a(I31
I-4
I42
I18
I-21
I-1
I1
I-2
tp295
a(I9
I7
I2
I12
I24
I9
I0
I6
tp296
a(I-5
I-1
I-1
I0
I12
I6
I13
I4
tp297
a(I20
I15
I6
I1
I52
I3
I-8
I-19
tp298
a(I-3
I36
I-11
I22
I-60
I-3
I-8
I-4
tp299
a(I-21
I-43
I-3
I-20
I27
I13
I9
I8
tp300
a(I37
I-32
I9
I24
I38
I24
I2
I-9
tp301
a(lp302
F0.9671630859375
aF0.0335693359375
aF0.0281982421875
aF0.2501220703125
aa(I-4
I-23
I-8
I-17
I-48
I-31
I4
I4
tp303
a(I29
I87
I-10
I-17
I36
I9
I8
I8
tp304
a(I8
I-8
I9
I-8
I-18
I-13
I-26
I6
tp305
a(I5
I13
I6
I12
I-34
I-1
I-5
I6
tp306
a(lp307
F0.96728515625
aF0.0333251953125
aF0.0301513671875
aF0.24945068359375
aa(I-3
I28
I0
I-5
I-7
I0
I-9
I-4
tp308
a(I-41
I-15
I-4
I-12
I6
I-13
I-2
I-12
tp309
a(I5
I-43
I-6
I11
I38
I7
I3
I-7
tp310
a(I-16
I5
I-2
I-14
I-2
I6
I-1
I5
tp311
a(I-7
I-54
I-25
I22
I-42
I-26
I0
I1
tp312
a(I48
I20
I19
I-19
I-9
I3
I11
I-10
tp313
a(lp314
F0.9674072265625
aF0.0333251953125
aF0.03076171875
aF0.2489013671875
aa(I46
I12
I-10
I9
I46
I4
I8
I1
tp315
a(I-64
I-36
I-18
I-3
I-24
I4
I-1
I1
tp316
a(I-3
I11
I20
I-11
I-27
I-9
I0
I0
tp317
a(I-8
I3
I-3
I-5
I14
I-4
I-5
I-7
tp318
a(I0
I45
I12
I-10
I-13
I1
I-7
I-3
tp319
a(I-5
I-24
I-2
I20
I37
I7
I7
I-6
tp320
a(I18
I-7
I-8
I-17
I9
I6
I-4
I8
tp321
a(I33
I35
I-11
I0
I-21
I-12
I-1
I-3
tp322
a(lp323
F0.96734619140625
aF0.03326416015625
aF0.03228759765625
aF0.2490234375
aa(I-40
I-32
I-20
I10
I2
I5
I12
I3
tp324
a(I-15
I-49
I-9
I-3
I3
I3
I0
I-3
tp325
a(I12
I7
I20
I-30
I-26
I-37
I-7
I3
tp326
a(I-60
I13
I-20
I-3
I21
I5
I-13
I-10
tp327
a(lp328
F0.96746826171875
aF0.03387451171875
aF0.03399658203125
aF0.24835205078125
aa(I21
I-38
I7
I17
I-9
I-12
I4
I5
tp329
a(I-22
I-2
I-25
I16
I45
I22
I-7
I2
tp330
a(I-8
I0
I22
I-8
I-22
I-13
I1
I-10
tp331
a(I-18
I-14
I-6
I0
I2
I-7
I-16
I-3
tp332
a(lp333
F0.96722412109375
aF0.03314208984375
aF0.03619384765625
aF0.2489013671875
aa(I-7
I-7
I-3
I-13
I1
I14
I-2
I1
tp334
a(I22
I-14
I-41
I13
I-5
I-8
I-9
I0
tp335
a(I-20
I-55
I15
I-6
I-4
I-4
I-4
I0
tp336
a(I4
I8
I1
I4
I17
I3
I-5
I0
tp337
a(lp338
F0.96722412109375
aF0.0335693359375
aF0.03607177734375
aF0.24884033203125
aa(I-3
I16
I4
I-13
I-35
I-5
I-3
I6
tp339
a(I-21
I-10
I-9
I21
I26
I1
I-1
I-9
tp340
a(I-13
I16
I-8
I-4
I2
I1
I-11
I5
tp341
a(I10
I2
I-22
I-9
I23
I11
I9
I1
tp342
a(lp343
F0.96697998046875
aF0.03271484375
aF0.03619384765625
aF0.25006103515625
aa(I20
I-3
I5
I-3
I-10
I-2
I-6
I-2
tp344
a(I-47
I39
I7
I-4
I-21
I-19
I-7
I-3
tp345
a(I11
I28
I-2
I9
I17
I5
I-7
I2
tp346
a(I-18
I2
I3
I3
I-11
I-10
I-14
I-3
tp347
a(lp348
F0.96722412109375
aF0.03338623046875
aF0.03564453125
aF0.24896240234375
aa(I-42
I-27
I-2
I6
I16
I9
I5
I-7
tp349
a(I28
I22
I9
I-8
I25
I19
I14
I8
tp350
a(I10
I28
I3
I23
I-29
I-14
I-14
I-10
tp351
a(I-7
I-16
I6
I-10
I20
I9
I17
I9
tp352
a(I-2
I19
I7
I-7
I-19
I-4
I-6
I8
tp353
a(I3
I31
I4
I-2
I14
I1
I8
I-3
tp354
a(I-4
I-40
I-6
I15
I31
I11
I-14
I-1
tp355
a(I19
I48
I3
I-7
I-19
I-4
I10
I6
tp356
a(lp357
F0.9674072265625
aF0.03338623046875
aF0.0361328125
aF0.24822998046875
aa(I-10
I25
I-4
I-1
I-6
I0
I7
I0
tp358
a(I47
I-14
I-7
I-8
I-3
I-9
I0
I-1
tp359
a(I2
I13
I-6
I38
I55
I23
I2
I2
tp360
a(I-58
I-43
I-31
I-20
I-18
I-7
I-6
I-8
tp361
a(I15
I29
I2
I-33
I-86
I-33
I1
I-2
tp362
a(I-4
I10
I17
I-7
I2
I3
I-25
I-3
tp363
a(lp364
F0.9674072265625
aF0.03338623046875
aF0.03546142578125
aF0.24835205078125
aa(I55
I-26
I-8
I19
I32
I8
I2
I6
tp365
a(I-62
I-11
I-21
I0
I5
I0
I7
I1
tp366
a(I-11
I-56
I-22
I3
I25
I4
I3
I-8
tp367
a(I8
I42
I21
I-3
I-8
I-7
I-31
I-7
tp368
a(lp369
F0.96734619140625
aF0.03387451171875
aF0.0362548828125
aF0.248291015625
aa(I-3
I-39
I-21
I10
I-21
I-4
I21
I-17
tp370
a(I10
I44
I-1
I-3
I17
I4
I6
I29
tp371
a(I-46
I15
I7
I7
I17
I3
I8
I0
tp372
a(I28
I-23
I12
I24
I11
I-9
I0
I4
tp373
a(I-23
I47
I0
I15
I23
I0
I-2
I4
tp374
a(I66
I22
I-13
I-41
I-57
I-17
I-18
I-7
tp375
a(lp376
F0.96697998046875
aF0.03350830078125
aF0.0364990234375
aF0.24993896484375
aa(I-79
I-4
I4
I2
I25
I11
I12
I-1
tp377
a(I19
I-11
I-3
I11
I-8
I-4
I4
I-2
tp378
a(I7
I-21
I1
I-8
I13
I0
I-4
I4
tp379
a(I-4
I39
I13
I20
I23
I12
I9
I3
tp380
a(lp381
F0.966796875
aF0.03363037109375
aF0.03759765625
aF0.25030517578125
aa(I-16
I3
I-1
I-27
I27
I12
I4
I1
tp382
a(I-25
I-26
I-10
I11
I-26
I9
I-19
I-11
tp383
a(I47
I10
I-10
I-9
I22
I-19
I-10
I-2
tp384
a(I10
I12
I3
I4
I-39
I10
I0
I3
tp385
a(lp386
F0.96673583984375
aF0.033447265625
aF0.03753662109375
aF0.250732421875
aa(lp387
F0.96685791015625
aF0.03369140625
aF0.03753662109375
aF0.2501220703125
aa(I-25
I-38
I9
I-13
I-11
I7
I14
I3
tp388
a(I43
I-17
I1
I12
I10
I-7
I7
I6
tp389
a(I-51
I-2
I-11
I10
I-1
I3
I-13
I-12
tp390
a(I-8
I-15
I4
I-24
I10
I7
I4
I-1
tp391
a(lp392
F0.96697998046875
aF0.0341796875
aF0.03778076171875
aF0.24951171875
aa(I16
I41
I1
I-11
I-68
I-9
I-3
I-3
tp393
a(I11
I-6
I13
I-27
I-22
I-11
I-14
I10
tp394
a(lp395
F0.96673583984375
aF0.03289794921875
aF0.03759765625
aF0.2506103515625
aa(I-26
I-21
I-24
I16
I3
I-5
I-6
I-8
tp396
a(I21
I-20
I34
I-6
I-4
I8
I1
I8
tp397
a(I12
I38
I-3
I10
I48
I8
I9
I5
tp398
a(I-2
I-15
I-6
I23
I15
I6
I-4
I-2
tp399
a(lp400
F0.96722412109375
aF0.033935546875
aF0.03802490234375
aF0.24871826171875
aa(I3
I-5
I-16
I-29
I2
I6
I4
I5
tp401
a(I0
I11
I16
I38
I-39
I-10
I0
I-4
tp402
a(I13
I-49
I-15
I-26
I-16
I-2
I-10
I3
tp403
a(I-28
I27
I22
I17
I34
I16
I9
I6
tp404
a(lp405
F0.9671630859375
aF0.0345458984375
aF0.0384521484375
aF0.248779296875
aaa(lp406
(I54
I32
I-20
I-13
I-38
I4
I14
I34
tp407
a(I28
I-8
I5
I18
I48
I-33
I-3
I-17
tp408
a(lp409
F0.96661376953125
aF0.03240966796875
aF0.0303955078125
aF0.252197265625
aa(lp410
F0.96661376953125
aF0.0322265625
aF0.0311279296875
aF0.25201416015625
aa(I-24
I-84
I-32
I-15
I12
I1
I-8
I-14
tp411
a(I36
I9
I15
I30
I20
I8
I13
I6
tp412
a(I-4
I-13
I22
I33
I14
I7
I-12
I-6
tp413
a(I16
I26
I7
I-47
I-89
I-21
I-7
I-6
tp414
a(lp415
F0.96685791015625
aF0.03228759765625
aF0.0306396484375
aF0.25128173828125
aa(lp416
F0.9666748046875
aF0.03173828125
aF0.03057861328125
aF0.2520751953125
aa(I-8
I36
I8
I-1
I12
I2
I4
I24
tp417
a(I42
I-46
I5
I6
I-1
I1
I5
I-14
tp418
a(I-26
I23
I-11
I-20
I-3
I2
I-8
I-13
tp419
a(I-6
I18
I54
I7
I1
I-2
I1
I6
tp420
a(lp421
F0.966796875
aF0.03277587890625
aF0.0308837890625
aF0.25140380859375
aa(I-62
I20
I45
I27
I10
I4
I27
I-4
tp422
a(I25
I-44
I-30
I-19
I-7
I-14
I-17
I19
tp423
a(lp424
F0.96661376953125
aF0.0394287109375
aF0.0240478515625
aF0.251953125
aa(I-8
I36
I22
I2
I-14
I-8
I4
I3
tp425
a(I14
I-55
I-13
I0
I6
I-5
I-8
I-5
tp426
a(I2
I11
I-16
I-21
I-11
I0
I-5
I-14
tp427
a(I-7
I28
I0
I22
I20
I12
I11
I4
tp428
a(I40
I53
I-6
I17
I-4
I-2
I3
I14
tp429
a(I-45
I-4
I-8
I-28
I-17
I-20
I-5
I-17
tp430
a(lp431
F0.966796875
aF0.03680419921875
aF0.0277099609375
aF0.251220703125
aa(I40
I-9
I40
I21
I20
I9
I2
I12
tp432
a(I31
I37
I-1
I2
I19
I6
I1
I4
tp433
a(I-9
I-8
I3
I-11
I-14
I-11
I-5
I10
tp434
a(I17
I-13
I-8
I18
I25
I7
I-5
I-2
tp435
a(lp436
F0.96697998046875
aF0.03997802734375
aF0.0234375
aF0.25048828125
aa(I19
I-24
I-7
I14
I-4
I-4
I3
I7
tp437
a(I-51
I18
I9
I-24
I1
I-7
I15
I-6
tp438
a(I64
I85
I13
I12
I-20
I-1
I-15
I-4
tp439
a(I5
I37
I-14
I12
I10
I4
I13
I5
tp440
a(lp441
F0.9671630859375
aF0.03814697265625
aF0.02197265625
aF0.250244140625
aa(I-2
I8
I20
I19
I29
I23
I14
I6
tp442
a(I51
I-19
I-12
I-35
I-39
I-10
I24
I27
tp443
a(lp444
F0.96728515625
aF0.0374755859375
aF0.02264404296875
aF0.2496337890625
aa(I-87
I-52
I-31
I-23
I-17
I-23
I-22
I-21
tp445
a(I15
I40
I23
I41
I5
I3
I5
I3
tp446
a(I-51
I-59
I-2
I9
I6
I15
I-5
I-1
tp447
a(I-2
I-46
I-2
I-2
I14
I-9
I-13
I-3
tp448
a(lp449
F0.96771240234375
aF0.038330078125
aF0.02301025390625
aF0.2479248046875
aa(I40
I0
I9
I-21
I-45
I-16
I22
I23
tp450
a(I1
I-16
I-25
I-3
I20
I3
I-6
I-7
tp451
a(I-17
I-9
I23
I11
I13
I5
I3
I7
tp452
a(I29
I12
I8
I12
I43
I24
I6
I16
tp453
a(lp454
F0.9677734375
aF0.038818359375
aF0.02325439453125
aF0.24755859375
aa(lp455
F0.9677734375
aF0.03863525390625
aF0.02362060546875
aF0.24749755859375
aa(I-39
I-59
I-46
I-6
I25
I2
I-6
I16
tp456
a(I37
I-3
I16
I25
I19
I8
I-11
I5
tp457
a(I31
I89
I17
I-13
I-13
I1
I-3
I-18
tp458
a(I51
I-32
I2
I8
I-10
I-10
I4
I5
tp459
a(lp460
F0.96783447265625
aF0.03900146484375
aF0.02349853515625
aF0.24725341796875
aa(I52
I-48
I-22
I-5
I-1
I4
I1
I-3
tp461
a(I-29
I-47
I3
I10
I25
I-2
I16
I10
tp462
a(lp463
F0.968017578125
aF0.0401611328125
aF0.02392578125
aF0.246337890625
aa(I0
I43
I-4
I-19
I9
I10
I-18
I-10
tp464
a(I-5
I-45
I0
I15
I34
I31
I12
I-8
tp465
a(I42
I11
I4
I24
I-9
I-21
I-5
I36
tp466
a(I-24
I49
I-16
I-16
I-15
I-16
I-14
I-6
tp467
a(lp468
F0.968017578125
aF0.03997802734375
aF0.025146484375
aF0.24627685546875
aa(I23
I4
I70
I31
I18
I18
I-22
I1
tp469
a(I-10
I-36
I-13
I-23
I-18
I-15
I-1
I-4
tp470
a(I-24
I-22
I8
I-9
I-1
I1
I6
I3
tp471
a(I45
I26
I3
I42
I1
I-12
I-21
I-4
tp472
a(lp473
F0.968017578125
aF0.03985595703125
aF0.02490234375
aF0.2462158203125
aa(I7
I-37
I-5
I2
I17
I25
I24
I8
tp474
a(I8
I-17
I-31
I4
I40
I-5
I-19
I10
tp475
a(lp476
F0.96832275390625
aF0.03900146484375
aF0.0240478515625
aF0.24542236328125
aa(I81
I65
I10
I-10
I40
I30
I13
I17
tp477
a(I28
I55
I-8
I39
I-23
I-1
I-9
I4
tp478
a(I-23
I-19
I-7
I-19
I-18
I-28
I-7
I-15
tp479
a(I-47
I-54
I-3
I-11
I-17
I1
I5
I-15
tp480
a(I-2
I-72
I-10
I32
I-44
I-30
I-8
I-4
tp481
a(I-22
I-1
I-5
I-30
I-25
I-7
I-8
I-3
tp482
a(lp483
F0.96856689453125
aF0.03900146484375
aF0.024169921875
aF0.24420166015625
aa(I34
I0
I20
I9
I50
I12
I10
I-3
tp484
a(I-78
I49
I-5
I35
I31
I13
I14
I-14
tp485
a(I6
I25
I20
I-15
I1
I17
I-2
I2
tp486
a(I45
I-63
I-7
I-3
I4
I2
I-11
I-4
tp487
a(lp488
F0.96868896484375
aF0.03900146484375
aF0.02520751953125
aF0.24365234375
aa(I4
I-38
I-31
I-4
I-34
I-23
I3
I13
tp489
a(I-2
I-3
I-2
I-8
I-42
I-18
I-14
I-26
tp490
a(I41
I-4
I-10
I-14
I20
I5
I4
I2
tp491
a(I-69
I59
I1
I-9
I21
I15
I12
I10
tp492
a(lp493
F0.96868896484375
aF0.03863525390625
aF0.02545166015625
aF0.243896484375
aa(I-11
I77
I10
I-25
I-53
I-30
I-6
I3
tp494
a(I7
I49
I-11
I-16
I9
I-8
I-5
I-9
tp495
a(lp496
F0.9686279296875
aF0.0377197265625
aF0.026123046875
aF0.24407958984375
aa(I-56
I-10
I17
I29
I13
I15
I5
I-4
tp497
a(I-3
I-6
I-42
I-18
I-25
I1
I7
I5
tp498
a(I-6
I-3
I22
I-8
I-46
I-20
I-7
I-3
tp499
a(I53
I-5
I-5
I-12
I1
I-9
I-6
I2
tp500
a(I-60
I-98
I-52
I-3
I-1
I8
I22
I-7
tp501
a(I17
I94
I11
I-14
I20
I18
I-12
I-3
tp502
a(lp503
F0.968505859375
aF0.0382080078125
aF0.027099609375
aF0.2442626953125
aa(I-40
I-33
I-10
I-7
I-56
I-19
I-12
I3
tp504
a(I86
I11
I-4
I-26
I-57
I-51
I9
I-2
tp505
a(I-31
I-13
I-32
I-30
I37
I-2
I-15
I17
tp506
a(I-44
I37
I36
I51
I-11
I3
I1
I-11
tp507
a(lp508
F0.968505859375
aF0.038330078125
aF0.02813720703125
aF0.244140625
aa(I-30
I26
I16
I6
I26
I-8
I-8
I-6
tp509
a(I29
I-29
I-30
I-36
I-78
I-26
I-9
I3
tp510
a(I7
I16
I37
I20
I37
I4
I22
I3
tp511
a(I-12
I-42
I-27
I-9
I-61
I-2
I-34
I-14
tp512
a(lp513
F0.96844482421875
aF0.038330078125
aF0.02789306640625
aF0.24462890625
aa(I2
I-29
I8
I0
I-12
I15
I6
I19
tp514
a(I19
I56
I-20
I1
I3
I-3
I16
I-13
tp515
a(lp516
F0.9683837890625
aF0.0382080078125
aF0.02789306640625
aF0.244873046875
aa(I-18
I-18
I25
I3
I0
I-16
I4
I1
tp517
a(I-14
I-8
I-4
I2
I-3
I9
I-20
I5
tp518
a(I-32
I6
I-35
I1
I17
I12
I8
I2
tp519
a(I95
I74
I30
I16
I17
I2
I-15
I-5
tp520
a(lp521
F0.96820068359375
aF0.0382080078125
aF0.02850341796875
aF0.2454833984375
aa(I15
I21
I23
I-7
I-7
I-1
I0
I10
tp522
a(I-1
I15
I-4
I16
I3
I-2
I-24
I-4
tp523
a(I-45
I8
I2
I-6
I37
I8
I1
I-2
tp524
a(I4
I-39
I4
I-2
I-64
I-13
I-12
I-10
tp525
a(lp526
F0.96826171875
aF0.0380859375
aF0.02850341796875
aF0.24517822265625
aa(I3
I23
I15
I6
I18
I8
I3
I-5
tp527
a(I-4
I-1
I-8
I5
I37
I22
I5
I-7
tp528
a(I-10
I11
I-8
I-12
I-27
I-13
I-18
I-8
tp529
a(I-24
I-53
I30
I-11
I-34
I-14
I3
I5
tp530
a(lp531
F0.96844482421875
aF0.038330078125
aF0.02813720703125
aF0.24456787109375
aa(I37
I22
I23
I38
I33
I23
I13
I5
tp532
a(I39
I12
I-13
I2
I11
I-12
I5
I8
tp533
a(I73
I6
I13
I27
I24
I12
I-4
I-9
tp534
a(I2
I-32
I-9
I-19
I-10
I-5
I27
I12
tp535
a(lp536
F0.96826171875
aF0.0386962890625
aF0.02764892578125
aF0.24517822265625
aa(I12
I-49
I8
I14
I-19
I-12
I-11
I4
tp537
a(I-24
I-17
I-26
I-20
I-3
I0
I-3
I-14
tp538
a(I-32
I8
I17
I29
I16
I0
I-1
I-4
tp539
a(I-34
I38
I-34
I-21
I-5
I5
I2
I-15
tp540
a(lp541
F0.96795654296875
aF0.04022216796875
aF0.0252685546875
aF0.246337890625
aa(I-49
I-7
I-6
I-4
I-12
I-9
I-5
I12
tp542
a(I-39
I-49
I-12
I7
I-15
I3
I0
I-2
tp543
a(I9
I-24
I11
I-1
I15
I-20
I-1
I-8
tp544
a(I38
I20
I1
I-22
I-31
I18
I10
I9
tp545
a(lp546
F0.96783447265625
aF0.04058837890625
aF0.0252685546875
aF0.24676513671875
aa(I2
I-12
I10
I-24
I20
I-14
I-31
I0
tp547
a(I-13
I10
I6
I32
I14
I7
I16
I-7
tp548
a(lp549
F0.96759033203125
aF0.04156494140625
aF0.02679443359375
aF0.24755859375
aa(I0
I56
I4
I-2
I4
I1
I-4
I3
tp550
a(I-17
I-40
I-16
I-1
I-4
I-10
I-1
I-9
tp551
a(I-61
I-22
I-9
I-7
I10
I11
I5
I-12
tp552
a(I36
I22
I-1
I22
I23
I6
I-5
I19
tp553
a(I-53
I-27
I-11
I-3
I-4
I-15
I-25
I-10
tp554
a(I-43
I2
I-24
I-13
I1
I-12
I-1
I-13
tp555
a(lp556
F0.96746826171875
aF0.04345703125
aF0.027099609375
aF0.24755859375
aa(I46
I-12
I57
I37
I39
I13
I9
I17
tp557
a(I16
I17
I17
I24
I32
I41
I5
I-1
tp558
a(I-4
I-20
I-30
I-31
I-58
I-42
I-28
I-5
tp559
a(I-56
I-42
I-13
I-39
I-7
I22
I5
I14
tp560
a(lp561
F0.96759033203125
aF0.044189453125
aF0.02667236328125
aF0.2470703125
aa(I19
I-42
I-26
I-9
I11
I6
I0
I8
tp562
a(I-43
I-16
I6
I1
I-11
I-7
I-1
I-14
tp563
a(I36
I5
I-16
I-10
I8
I5
I16
I8
tp564
a(I54
I43
I28
I8
I7
I19
I9
I6
tp565
a(lp566
F0.96759033203125
aF0.0445556640625
aF0.02679443359375
aF0.2469482421875
aa(I35
I-15
I-17
I-30
I-24
I-12
I-9
I7
tp567
a(I-45
I5
I-12
I-4
I-10
I-12
I1
I-8
tp568
a(lp569
F0.9676513671875
aF0.04510498046875
aF0.02789306640625
aF0.2464599609375
aa(I37
I-52
I6
I5
I3
I-10
I-7
I-9
tp570
a(I36
I40
I20
I5
I22
I10
I3
I-4
tp571
a(I-57
I-14
I-11
I13
I-1
I14
I0
I-8
tp572
a(I19
I-14
I19
I-15
I-7
I-18
I-2
I5
tp573
a(lp574
F0.96771240234375
aF0.0458984375
aF0.02825927734375
aF0.2459716796875
aa(I-8
I46
I-32
I7
I-10
I-11
I-18
I-9
tp575
a(I45
I44
I58
I5
I11
I12
I14
I11
tp576
a(I-67
I19
I-11
I-9
I-2
I-25
I-1
I-2
tp577
a(I83
I0
I4
I32
I26
I12
I-14
I5
tp578
a(lp579
F0.96771240234375
aF0.04620361328125
aF0.0284423828125
aF0.2459716796875
aa(I-16
I-1
I19
I29
I-8
I-5
I32
I9
tp580
a(I-71
I-33
I-32
I-47
I-20
I-11
I-18
I-5
tp581
a(I66
I-21
I-12
I30
I6
I0
I9
I0
tp582
a(I-63
I79
I21
I19
I30
I15
I-7
I-1
tp583
a(lp584
F0.9676513671875
aF0.04620361328125
aF0.02838134765625
aF0.24615478515625
aa(I62
I-1
I-24
I-10
I-1
I6
I-1
I1
tp585
a(I-44
I2
I-6
I-6
I-14
I-10
I-8
I-22
tp586
a(I0
I0
I-34
I-1
I-21
I-18
I-24
I-9
tp587
a(I4
I-66
I-14
I-63
I-92
I-53
I1
I3
tp588
a(lp589
F0.9677734375
aF0.04742431640625
aF0.0277099609375
aF0.2454833984375
aa(I-12
I-5
I-16
I26
I2
I-3
I0
I-6
tp590
a(I-18
I42
I-1
I15
I12
I14
I-1
I-3
tp591
a(I31
I31
I46
I16
I62
I16
I0
I4
tp592
a(I-39
I1
I-28
I14
I-5
I16
I2
I4
tp593
a(lp594
F0.96783447265625
aF0.04791259765625
aF0.027587890625
aF0.24517822265625
aa(I14
I35
I-5
I21
I47
I25
I11
I11
tp595
a(I-11
I-23
I-19
I-29
I-87
I-31
I-5
I-9
tp596
a(I29
I-17
I-18
I-58
I-70
I-31
I-27
I2
tp597
a(I-46
I57
I23
I39
I2
I-12
I8
I4
tp598
a(lp599
F0.96783447265625
aF0.04730224609375
aF0.0274658203125
aF0.24542236328125
aa(I58
I17
I-6
I-13
I-10
I-8
I-11
I-5
tp600
a(I-16
I-22
I-23
I9
I-14
I0
I3
I-14
tp601
a(I4
I27
I20
I7
I28
I13
I1
I2
tp602
a(I75
I-25
I-29
I-8
I5
I0
I-17
I-7
tp603
a(lp604
F0.96807861328125
aF0.04840087890625
aF0.028076171875
aF0.2442626953125
aa(I-34
I-7
I19
I-6
I-32
I-10
I5
I2
tp605
a(I-55
I12
I-10
I4
I10
I-4
I-2
I-13
tp606
a(I-24
I-20
I-9
I-11
I-2
I4
I1
I-7
tp607
a(I23
I50
I22
I8
I1
I14
I12
I15
tp608
a(lp609
F0.968017578125
aF0.04815673828125
aF0.02978515625
aF0.24432373046875
aa(I-26
I-12
I-13
I-6
I19
I-9
I-10
I-6
tp610
a(I-16
I-63
I2
I-25
I-13
I-4
I4
I-4
tp611
a(I57
I50
I0
I30
I-13
I-5
I11
I18
tp612
a(I16
I4
I-16
I8
I5
I-11
I-16
I-22
tp613
a(I37
I6
I13
I-1
I20
I-7
I2
I18
tp614
a(I-33
I-8
I-27
I-4
I2
I4
I-8
I-22
tp615
a(lp616
F0.96820068359375
aF0.047607421875
aF0.02996826171875
aF0.2435302734375
aa(I52
I-49
I13
I-9
I6
I5
I-1
I0
tp617
a(I-54
I16
I20
I4
I0
I-6
I-23
I-10
tp618
a(I12
I-66
I-22
I0
I-13
I1
I22
I-1
tp619
a(I58
I41
I16
I8
I12
I8
I9
I18
tp620
a(I-25
I63
I18
I-6
I-3
I-16
I-12
I-1
tp621
a(I-13
I-5
I-19
I-6
I-17
I0
I18
I-2
tp622
a(lp623
F0.96832275390625
aF0.04827880859375
aF0.03106689453125
aF0.2427978515625
aa(I22
I-4
I-18
I0
I-1
I1
I-26
I7
tp624
a(I35
I-10
I23
I8
I51
I8
I14
I12
tp625
a(I-35
I-2
I-31
I-32
I-27
I-7
I-19
I-20
tp626
a(I-2
I-8
I26
I34
I2
I12
I2
I-5
tp627
a(I19
I-33
I10
I15
I14
I-6
I7
I-3
tp628
a(I30
I41
I-12
I-3
I11
I19
I10
I14
tp629
a(I-19
I26
I1
I-11
I-56
I-23
I-11
I-12
tp630
a(I-35
I-4
I22
I-19
I1
I-7
I9
I8
tp631
a(lp632
F0.96844482421875
aF0.04931640625
aF0.03192138671875
aF0.241943359375
aa(I5
I-3
I-23
I14
I9
I11
I10
I10
tp633
a(I-17
I39
I21
I-10
I12
I-5
I-4
I-13
tp634
a(I19
I0
I11
I4
I15
I-3
I-5
I0
tp635
a(I30
I-42
I-23
I-14
I-3
I-1
I4
I7
tp636
a(lp637
F0.96844482421875
aF0.04833984375
aF0.0321044921875
aF0.2423095703125
aa(I-113
I16
I2
I10
I-8
I0
I2
I-5
tp638
a(I106
I17
I0
I6
I-11
I-7
I-11
I4
tp639
a(I-48
I10
I-6
I7
I10
I-5
I-1
I-14
tp640
a(I31
I-13
I20
I5
I28
I18
I10
I15
tp641
a(lp642
F0.96844482421875
aF0.04901123046875
aF0.03228759765625
aF0.24200439453125
aa(I-83
I-47
I-27
I4
I3
I-20
I-10
I-26
tp643
a(I-24
I-23
I-4
I-6
I13
I16
I3
I22
tp644
a(I31
I5
I4
I23
I27
I11
I7
I1
tp645
a(I62
I-9
I-4
I-13
I-16
I-11
I-1
I-2
tp646
a(lp647
F0.9683837890625
aF0.0489501953125
aF0.03271484375
aF0.24224853515625
aa(I9
I40
I1
I13
I-1
I-5
I3
I0
tp648
a(I-98
I-15
I4
I-2
I9
I7
I9
I-11
tp649
a(I22
I23
I-7
I10
I6
I3
I-7
I4
tp650
a(I47
I-32
I-19
I-16
I1
I-12
I0
I3
tp651
a(lp652
F0.96844482421875
aF0.04888916015625
aF0.033203125
aF0.2420654296875
aa(I-37
I24
I-9
I-3
I13
I9
I-1
I-4
tp653
a(I51
I21
I21
I-16
I-40
I-14
I-3
I5
tp654
a(I-31
I-13
I1
I-22
I-11
I4
I15
I15
tp655
a(I-25
I40
I-9
I-2
I1
I-19
I-5
I-10
tp656
a(lp657
F0.96807861328125
aF0.04901123046875
aF0.03375244140625
aF0.24322509765625
aa(I51
I-20
I7
I3
I5
I8
I0
I11
tp658
a(I8
I36
I13
I24
I47
I21
I-5
I-6
tp659
a(I8
I-70
I-47
I-8
I-11
I3
I-1
I-2
tp660
a(I20
I7
I43
I-6
I-9
I0
I1
I-4
tp661
a(lp662
F0.9678955078125
aF0.04931640625
aF0.0323486328125
aF0.244140625
aa(I-14
I-33
I-3
I-15
I-25
I-28
I-19
I5
tp663
a(I-68
I-10
I-20
I-1
I-6
I10
I7
I-11
tp664
a(I0
I-22
I-9
I-12
I-41
I-13
I-31
I11
tp665
a(I-13
I-23
I-2
I6
I52
I15
I6
I10
tp666
a(lp667
F0.9678955078125
aF0.04876708984375
aF0.03216552734375
aF0.24432373046875
aa(I-11
I-5
I5
I1
I24
I14
I14
I2
tp668
a(I-27
I2
I-21
I-10
I4
I1
I-9
I-21
tp669
a(lp670
F0.9678955078125
aF0.048583984375
aF0.0338134765625
aF0.2440185546875
aa(I0
I5
I9
I6
I-29
I-9
I-17
I13
tp671
a(I-52
I20
I24
I15
I-2
I-7
I5
I-4
tp672
a(I48
I-26
I-19
I-15
I-2
I-2
I12
I7
tp673
a(I127
I43
I4
I19
I8
I21
I-12
I10
tp674
a(I-9
I-19
I19
I-25
I0
I-6
I-4
I8
tp675
a(I22
I-31
I-36
I10
I-6
I6
I19
I12
tp676
a(lp677
F0.96795654296875
aF0.04931640625
aF0.0338134765625
aF0.24371337890625
aa(I-24
I46
I66
I-7
I-1
I0
I4
I-7
tp678
a(I33
I-23
I-35
I9
I10
I-3
I-17
I8
tp679
a(I-5
I18
I-7
I4
I10
I5
I3
I-5
tp680
a(I14
I24
I13
I-17
I-14
I-1
I-8
I-4
tp681
a(lp682
F0.96795654296875
aF0.050048828125
aF0.033203125
aF0.2437744140625
aa(I-44
I-17
I-15
I-11
I6
I12
I0
I0
tp683
a(I-11
I18
I-8
I-5
I36
I26
I14
I-7
tp684
a(I-37
I-10
I10
I11
I-5
I-6
I4
I3
tp685
a(I0
I21
I3
I-2
I4
I-5
I-5
I-1
tp686
a(lp687
F0.9678955078125
aF0.0499267578125
aF0.0330810546875
aF0.24383544921875
aa(I62
I-17
I-30
I12
I14
I7
I8
I5
tp688
a(I-63
I-32
I32
I0
I0
I-2
I-1
I0
tp689
a(lp690
F0.9681396484375
aF0.05029296875
aF0.03289794921875
aF0.2427978515625
aa(I31
I69
I-18
I7
I46
I18
I-6
I0
tp691
a(I-22
I-25
I-4
I-4
I-55
I-14
I10
I-3
tp692
a(I28
I19
I-13
I-5
I-23
I-21
I-12
I0
tp693
a(I-56
I-60
I-6
I10
I39
I24
I1
I-3
tp694
a(I7
I42
I-35
I0
I-13
I-15
I13
I6
tp695
a(I-2
I-30
I0
I-8
I-12
I-7
I-13
I-9
tp696
a(lp697
F0.96826171875
aF0.05029296875
aF0.0343017578125
aF0.24237060546875
aa(I-8
I-22
I17
I-18
I-17
I-6
I0
I2
tp698
a(I28
I81
I23
I13
I15
I-2
I-32
I-8
tp699
a(I6
I-6
I-24
I13
I16
I14
I-2
I-6
tp700
a(I30
I-2
I-14
I-6
I-8
I3
I14
I12
tp701
a(I-33
I-27
I-3
I28
I27
I21
I17
I-4
tp702
a(I-10
I2
I8
I-4
I-4
I9
I15
I2
tp703
a(I-15
I-11
I-29
I-26
I-13
I-16
I-22
I-15
tp704
a(I48
I2
I32
I-1
I4
I7
I8
I13
tp705
a(lp706
F0.9683837890625
aF0.04974365234375
aF0.0360107421875
aF0.24169921875
aa(I-65
I24
I10
I17
I23
I-1
I17
I-8
tp707
a(I-4
I-38
I6
I-5
I0
I11
I-10
I-5
tp708
a(lp709
F0.96844482421875
aF0.050048828125
aF0.03643798828125
aF0.2412109375
aa(I4
I2
I5
I-9
I-9
I-6
I-5
I-6
tp710
a(I33
I-40
I-30
I-3
I-3
I4
I16
I10
tp711
a(I15
I9
I32
I-16
I-17
I-6
I-16
I-3
tp712
a(I-66
I-18
I-27
I5
I8
I13
I4
I-11
tp713
a(lp714
F0.96832275390625
aF0.0496826171875
aF0.03662109375
aF0.24169921875
aa(I-26
I6
I-1
I-15
I27
I5
I-8
I-12
tp715
a(I-21
I-14
I-7
I21
I15
I1
I-11
I-4
tp716
a(I-28
I80
I8
I-20
I-15
I5
I6
I-7
tp717
a(I-28
I-15
I-17
I-2
I3
I-3
I6
I12
tp718
a(lp719
F0.96832275390625
aF0.05010986328125
aF0.03662109375
aF0.24169921875
aa(I40
I22
I22
I23
I10
I6
I11
I-7
tp720
a(I-20
I-31
I-2
I-10
I-11
I0
I11
I9
tp721
a(I63
I-38
I-13
I-3
I3
I-6
I-22
I-5
tp722
a(I-35
I36
I17
I-21
I14
I11
I7
I-7
tp723
a(lp724
F0.96832275390625
aF0.05029296875
aF0.03741455078125
aF0.24163818359375
aa(I-15
I-32
I-5
I42
I12
I15
I1
I8
tp725
a(I72
I86
I25
I10
I35
I2
I-1
I2
tp726
a(I4
I-22
I-27
I-2
I-18
I-1
I5
I8
tp727
a(I7
I-14
I-4
I-23
I-31
I-25
I-17
I-6
tp728
a(lp729
F0.96826171875
aF0.05133056640625
aF0.03729248046875
aF0.24151611328125
aa(I36
I18
I0
I-10
I8
I14
I24
I6
tp730
a(I-38
I-12
I-30
I6
I19
I6
I-24
I-1
tp731
a(I35
I10
I46
I7
I15
I15
I2
I5
tp732
a(I-8
I14
I8
I2
I9
I0
I-7
I5
tp733
a(lp734
F0.96826171875
aF0.0517578125
aF0.03729248046875
aF0.241455078125
aa(I-35
I-38
I-27
I-18
I-13
I-8
I4
I-7
tp735
a(I31
I28
I1
I7
I-2
I8
I18
I-1
tp736
a(lp737
F0.9683837890625
aF0.05126953125
aF0.03790283203125
aF0.2410888671875
aa(I-44
I-18
I-26
I-2
I30
I14
I1
I0
tp738
a(I19
I-32
I6
I1
I11
I4
I17
I-1
tp739
a(I65
I41
I11
I22
I-2
I9
I-5
I16
tp740
a(I34
I-49
I-9
I-15
I-14
I-17
I-3
I9
tp741
a(I-24
I16
I-7
I2
I37
I7
I-4
I3
tp742
a(I-21
I34
I12
I-30
I-23
I-6
I14
I3
tp743
a(lp744
F0.96868896484375
aF0.052001953125
aF0.0372314453125
aF0.23974609375
aa(I-29
I18
I-11
I11
I-50
I-18
I-17
I-9
tp745
a(I35
I64
I9
I-6
I7
I-2
I22
I10
tp746
a(I-53
I-47
I-6
I-4
I9
I1
I0
I-4
tp747
a(I46
I-4
I10
I3
I8
I-8
I13
I5
tp748
a(I-15
I-18
I15
I11
I2
I1
I2
I4
tp749
a(I16
I14
I-15
I-25
I12
I9
I19
I-5
tp750
a(I-52
I-2
I18
I14
I-1
I2
I-15
I-3
tp751
a(I17
I35
I32
I6
I-24
I-5
I10
I-2
tp752
a(lp753
F0.96881103515625
aF0.051513671875
aF0.03753662109375
aF0.2393798828125
aa(I-60
I-5
I-24
I-11
I-3
I-10
I-21
I-17
tp754
a(I34
I23
I6
I4
I10
I4
I11
I6
tp755
a(I19
I-57
I-10
I-5
I4
I4
I7
I-2
tp756
a(I10
I60
I-28
I-5
I-49
I-21
I-2
I7
tp757
a(lp758
F0.96868896484375
aF0.0511474609375
aF0.03778076171875
aF0.23968505859375
aa(I-51
I-32
I13
I-1
I-6
I0
I-4
I-5
tp759
a(I-60
I-45
I7
I-5
I9
I2
I6
I3
tp760
a(I22
I19
I25
I-19
I10
I14
I-10
I-14
tp761
a(I-32
I9
I-16
I28
I27
I3
I-1
I-4
tp762
a(I-1
I10
I0
I8
I7
I1
I2
I-5
tp763
a(I24
I-29
I-25
I-28
I-24
I-10
I-30
I-2
tp764
a(lp765
F0.9686279296875
aF0.05157470703125
aF0.037841796875
aF0.23992919921875
aa(I55
I8
I-15
I0
I-4
I-1
I14
I9
tp766
a(I54
I23
I22
I0
I15
I9
I16
I1
tp767
a(I-13
I53
I-8
I7
I8
I3
I-4
I6
tp768
a(I14
I-15
I-1
I-3
I-13
I4
I7
I1
tp769
a(I-31
I-38
I6
I-7
I-38
I-32
I-10
I-8
tp770
a(I-44
I47
I-17
I-7
I21
I4
I2
I-2
tp771
a(I-33
I4
I-5
I3
I-41
I-14
I-2
I-5
tp772
a(I10
I-21
I3
I-19
I-4
I2
I-4
I1
tp773
a(lp774
F0.968505859375
aF0.05120849609375
aF0.0399169921875
aF0.24029541015625
aa(I-5
I40
I-5
I-2
I10
I4
I4
I5
tp775
a(I48
I-26
I-23
I-6
I-15
I-2
I9
I-11
tp776
a(I-22
I-46
I12
I-10
I-16
I-17
I-34
I-10
tp777
a(I-8
I2
I16
I10
I35
I25
I18
I-3
tp778
a(lp779
F0.9683837890625
aF0.05096435546875
aF0.03985595703125
aF0.24090576171875
aa(I13
I50
I26
I25
I60
I21
I12
I10
tp780
a(I-95
I-29
I-10
I3
I-29
I21
I-5
I-17
tp781
a(I11
I5
I20
I-10
I-30
I-35
I11
I12
tp782
a(I53
I46
I-23
I-11
I-5
I-7
I-10
I-2
tp783
a(lp784
F0.9681396484375
aF0.04931640625
aF0.0391845703125
aF0.2420654296875
aa(I16
I23
I-15
I5
I1
I-2
I-16
I-6
tp785
a(I21
I11
I17
I-19
I-1
I-4
I-8
I-4
tp786
a(I45
I-9
I-18
I-5
I-14
I-2
I-3
I11
tp787
a(I-44
I22
I5
I-17
I-21
I-11
I-2
I-6
tp788
a(lp789
F0.96826171875
aF0.050048828125
aF0.0396728515625
aF0.2415771484375
aa(I45
I-15
I-32
I-4
I5
I2
I2
I4
tp790
a(I34
I15
I19
I12
I23
I4
I2
I2
tp791
a(I-24
I-19
I-5
I4
I-1
I12
I-13
I-9
tp792
a(I40
I11
I1
I35
I20
I10
I7
I10
tp793
a(lp794
F0.96832275390625
aF0.05035400390625
aF0.04144287109375
aF0.2408447265625
aa(I-8
I-43
I-15
I-17
I-13
I8
I10
I-6
tp795
a(I-13
I57
I11
I-3
I-22
I-27
I-16
I3
tp796
a(I-35
I7
I-5
I10
I10
I4
I9
I10
tp797
a(I7
I-25
I5
I-5
I7
I11
I11
I9
tp798
a(lp799
F0.96832275390625
aF0.04998779296875
aF0.04010009765625
aF0.2412109375
aa(I-48
I20
I-11
I-5
I-10
I-2
I-11
I-8
tp800
a(I-19
I22
I1
I7
I12
I0
I31
I2
tp801
aasS'fist-down'
p802
(lp803
(lp804
(I17
I83
I-2
I32
I-41
I3
I-1
I-18
tp805
a(I24
I-96
I-13
I-15
I45
I49
I17
I10
tp806
a(I15
I21
I0
I-2
I110
I11
I-5
I6
tp807
a(I5
I-18
I0
I1
I-84
I-75
I-13
I-10
tp808
a(lp809
F0.67523193359375
aF-0.0787353515625
aF0.69293212890625
aF0.2401123046875
aa(I12
I35
I10
I-5
I-99
I-7
I0
I0
tp810
a(I-19
I-23
I-12
I26
I99
I-2
I10
I5
tp811
a(I-9
I-13
I-1
I-56
I-128
I-56
I-1
I5
tp812
a(I-36
I-37
I-24
I-60
I-44
I-42
I-36
I-22
tp813
a(lp814
F0.67559814453125
aF-0.08026123046875
aF0.6923828125
aF0.24005126953125
aa(I-39
I52
I43
I39
I76
I36
I9
I-3
tp815
a(I18
I19
I-12
I11
I-40
I-41
I12
I21
tp816
a(lp817
F0.6744384765625
aF-0.08319091796875
aF0.69305419921875
aF0.240478515625
aa(I-45
I1
I0
I-56
I22
I79
I-3
I6
tp818
a(I-21
I-45
I-24
I-50
I-107
I-96
I-33
I-32
tp819
a(I-16
I-22
I-9
I-7
I8
I2
I8
I4
tp820
a(I-1
I-12
I14
I56
I127
I53
I11
I13
tp821
a(lp822
F0.6719970703125
aF-0.08465576171875
aF0.69464111328125
aF0.24224853515625
aa(I25
I-40
I-5
I17
I32
I-47
I-2
I-4
tp823
a(I18
I36
I8
I-34
I-95
I30
I9
I8
tp824
a(I-38
I-12
I-17
I-4
I-49
I-47
I-6
I-13
tp825
a(I-17
I12
I35
I78
I112
I127
I27
I20
tp826
a(lp827
F0.671875
aF-0.08526611328125
aF0.6947021484375
aF0.2421875
aa(I127
I44
I23
I-27
I-18
I-51
I5
I5
tp828
a(I-46
I-68
I-21
I-2
I3
I7
I16
I10
tp829
a(I-8
I-33
I-9
I24
I88
I43
I12
I-2
tp830
a(I18
I29
I-12
I-60
I-125
I-78
I1
I7
tp831
a(lp832
F0.670166015625
aF-0.08514404296875
aF0.695068359375
aF0.245849609375
aa(I-40
I4
I15
I59
I77
I12
I-11
I-8
tp833
a(I24
I-11
I0
I46
I-45
I47
I-9
I-2
tp834
a(I-25
I14
I8
I-9
I18
I12
I-30
I-6
tp835
a(I24
I11
I-12
I-27
I-86
I-61
I10
I-3
tp836
a(lp837
F0.671630859375
aF-0.08843994140625
aF0.69329833984375
aF0.24554443359375
aa(I-14
I-54
I-11
I-9
I28
I24
I-12
I-5
tp838
a(I-2
I38
I-5
I32
I118
I39
I16
I1
tp839
a(I-47
I-51
I10
I-23
I-91
I-7
I-5
I-9
tp840
a(I12
I-29
I-8
I-4
I-12
I-31
I-15
I-7
tp841
a(lp842
F0.67095947265625
aF-0.0892333984375
aF0.6942138671875
aF0.24468994140625
aa(I20
I41
I18
I-1
I12
I-52
I-12
I-3
tp843
a(I2
I21
I5
I71
I115
I115
I3
I2
tp844
a(I36
I-9
I13
I0
I-84
I-111
I5
I1
tp845
a(I-55
I42
I13
I12
I113
I21
I-10
I-11
tp846
a(lp847
F0.6708984375
aF-0.0897216796875
aF0.6942138671875
aF0.24456787109375
aa(I24
I76
I-14
I15
I39
I-34
I8
I11
tp848
a(I-3
I-29
I-15
I-27
I-64
I11
I-8
I-19
tp849
a(lp850
F0.6717529296875
aF-0.09002685546875
aF0.6927490234375
aF0.2462158203125
aa(I-34
I9
I9
I8
I0
I-12
I23
I13
tp851
a(I1
I-44
I-15
I-19
I-29
I-19
I-22
I-10
tp852
a(I60
I66
I15
I22
I57
I38
I7
I8
tp853
a(I-23
I-39
I-14
I0
I-38
I-4
I8
I8
tp854
a(I-4
I17
I4
I25
I38
I9
I-8
I-11
tp855
a(I-47
I37
I2
I-15
I-51
I3
I13
I0
tp856
a(lp857
F0.67242431640625
aF-0.08843994140625
aF0.69195556640625
aF0.24725341796875
aa(I5
I-103
I-25
I6
I-3
I-6
I-9
I0
tp858
a(I22
I61
I14
I17
I30
I-10
I16
I7
tp859
a(I-15
I-47
I-10
I13
I6
I2
I-2
I-6
tp860
a(I-22
I-30
I-2
I3
I-20
I17
I-7
I-3
tp861
a(lp862
F0.67230224609375
aF-0.08843994140625
aF0.6927490234375
aF0.24530029296875
aa(I23
I-22
I12
I16
I38
I33
I-8
I-3
tp863
a(I8
I-40
I-6
I-22
I-128
I-89
I-12
I-9
tp864
a(I-85
I23
I-4
I-47
I24
I3
I-8
I-17
tp865
a(I46
I-2
I23
I106
I127
I39
I6
I24
tp866
a(lp867
F0.67169189453125
aF-0.087890625
aF0.693359375
aF0.2454833984375
aa(I18
I-9
I-3
I66
I112
I94
I23
I2
tp868
a(I-2
I-76
I-11
I-50
I-28
I-58
I-17
I-8
tp869
a(lp870
F0.6712646484375
aF-0.08892822265625
aF0.69390869140625
aF0.24456787109375
aa(I-2
I-3
I-13
I-60
I-69
I-84
I-14
I-3
tp871
a(I15
I-36
I-24
I26
I8
I6
I3
I-4
tp872
a(I2
I52
I7
I11
I85
I29
I-15
I5
tp873
a(I-49
I-12
I-2
I59
I98
I43
I20
I-10
tp874
a(I20
I33
I11
I-10
I-58
I-5
I8
I1
tp875
a(I16
I31
I-2
I-17
I-16
I-15
I-13
I-10
tp876
a(lp877
F0.67181396484375
aF-0.087890625
aF0.6934814453125
aF0.2447509765625
aa(I-37
I-28
I-26
I20
I20
I17
I13
I6
tp878
a(I17
I-53
I6
I-25
I-75
I-5
I-9
I10
tp879
a(I-19
I-18
I-6
I-47
I-61
I-54
I-2
I-18
tp880
a(I-28
I-51
I-11
I41
I60
I29
I-14
I10
tp881
a(I-20
I5
I27
I57
I102
I64
I15
I4
tp882
a(I29
I-6
I-30
I-34
I-76
I-75
I-15
I-8
tp883
a(I18
I-24
I-23
I-24
I-114
I-66
I-29
I-5
tp884
a(I-5
I21
I18
I26
I83
I49
I-1
I-2
tp885
a(lp886
F0.6727294921875
aF-0.0880126953125
aF0.6929931640625
aF0.24365234375
aa(I5
I-10
I-5
I20
I51
I24
I17
I3
tp887
a(I8
I14
I1
I4
I27
I33
I6
I-5
tp888
a(I-11
I8
I28
I57
I62
I33
I15
I2
tp889
a(I-4
I-12
I-13
I-4
I-4
I22
I9
I1
tp890
a(lp891
F0.672119140625
aF-0.08648681640625
aF0.69415283203125
aF0.2425537109375
aa(I-4
I-10
I8
I21
I20
I4
I10
I10
tp892
a(I-22
I31
I-11
I-50
I-124
I-33
I-6
I-5
tp893
a(I-25
I-3
I4
I27
I30
I4
I-12
I-5
tp894
a(I-18
I-64
I-17
I-27
I-26
I11
I18
I2
tp895
a(lp896
F0.6744384765625
aF-0.08648681640625
aF0.69219970703125
aF0.24169921875
aa(I11
I-4
I-26
I-36
I4
I6
I-3
I2
tp897
a(I-61
I66
I12
I57
I34
I-5
I-5
I-13
tp898
a(I-19
I-118
I-23
I-21
I-12
I7
I-17
I11
tp899
a(I31
I82
I38
I20
I-26
I27
I19
I4
tp900
a(lp901
F0.67498779296875
aF-0.08599853515625
aF0.69183349609375
aF0.241455078125
aa(I29
I-22
I-15
I-32
I-25
I-13
I-8
I3
tp902
a(I36
I-6
I0
I-2
I-45
I-19
I-21
I-6
tp903
a(I-100
I-4
I-1
I27
I53
I24
I10
I1
tp904
a(I39
I-15
I-14
I15
I47
I30
I8
I5
tp905
a(lp906
F0.67431640625
aF-0.08502197265625
aF0.69317626953125
aF0.23974609375
aa(I-30
I65
I16
I15
I-31
I-22
I-13
I1
tp907
a(I31
I6
I-5
I-34
I-20
I-4
I10
I3
tp908
a(I-11
I47
I6
I9
I7
I3
I3
I4
tp909
a(I4
I-74
I-15
I-4
I37
I9
I0
I5
tp910
a(lp911
F0.67230224609375
aF-0.08404541015625
aF0.695556640625
aF0.2388916015625
aa(I1
I64
I14
I20
I-16
I-10
I-18
I-4
tp912
a(I-12
I-28
I3
I-5
I-3
I-1
I-8
I-8
tp913
a(I-1
I-12
I-1
I6
I-11
I-1
I9
I4
tp914
a(I-6
I16
I-1
I6
I61
I31
I8
I-1
tp915
a(lp916
F0.67596435546875
aF-0.08514404296875
aF0.69171142578125
aF0.2392578125
aa(I-7
I22
I-5
I12
I-13
I6
I2
I3
tp917
a(I-13
I16
I2
I-4
I6
I2
I4
I-2
tp918
a(I-19
I-19
I-4
I-19
I-41
I-20
I-5
I-6
tp919
a(I33
I16
I-6
I4
I9
I7
I4
I2
tp920
a(lp921
F0.67608642578125
aF-0.084716796875
aF0.69171142578125
aF0.2391357421875
aa(I-60
I-17
I-2
I-8
I-12
I-24
I-4
I-3
tp922
a(I42
I8
I5
I19
I-14
I-13
I-16
I3
tp923
a(lp924
F0.674072265625
aF-0.08416748046875
aF0.6939697265625
aF0.23846435546875
aa(I-56
I-4
I16
I-19
I5
I-5
I2
I-12
tp925
a(I23
I-60
I-27
I13
I76
I18
I2
I-3
tp926
a(I40
I9
I0
I-18
I-99
I7
I9
I13
tp927
a(I-15
I-47
I11
I-15
I-18
I-51
I-21
I-14
tp928
a(I-1
I21
I-6
I-8
I26
I1
I1
I11
tp929
a(I-28
I-11
I-1
I-23
I-21
I2
I-2
I-10
tp930
a(lp931
F0.67620849609375
aF-0.0836181640625
aF0.691650390625
aF0.23931884765625
aa(I-3
I18
I0
I12
I13
I-1
I-6
I1
tp932
a(I2
I-10
I-4
I-31
I-4
I16
I3
I2
tp933
a(I18
I-20
I7
I32
I-20
I-13
I14
I9
tp934
a(I-41
I16
I3
I0
I38
I1
I-12
I-16
tp935
a(I77
I57
I2
I-7
I-37
I-6
I-36
I8
tp936
a(I-42
I-59
I-11
I-29
I-33
I-29
I-2
I-11
tp937
a(I23
I-31
I-11
I-21
I-28
I-19
I-1
I2
tp938
a(I-6
I63
I18
I8
I-1
I7
I-4
I-2
tp939
a(lp940
F0.6732177734375
aF-0.0823974609375
aF0.694580078125
aF0.2396240234375
aa(I-42
I17
I-10
I10
I59
I18
I7
I0
tp941
a(I34
I-48
I8
I42
I51
I23
I3
I10
tp942
a(I-42
I-19
I6
I-4
I18
I0
I-3
I-17
tp943
a(I43
I-1
I-6
I5
I-14
I-12
I-4
I18
tp944
a(lp945
F0.66998291015625
aF-0.08563232421875
aF0.6988525390625
aF0.2352294921875
aa(I-1
I48
I21
I2
I77
I0
I6
I-12
tp946
a(I25
I22
I9
I-5
I-56
I9
I0
I0
tp947
a(I-4
I-15
I29
I-32
I-57
I-27
I-7
I-4
tp948
a(I-45
I55
I-6
I-7
I-5
I-5
I-14
I3
tp949
a(lp950
F0.669677734375
aF-0.085205078125
aF0.699462890625
aF0.2344970703125
aa(I-8
I26
I-14
I4
I-89
I-83
I7
I-2
tp951
a(I20
I-62
I6
I-9
I-22
I-8
I-16
I-10
tp952
a(I-15
I27
I-2
I16
I16
I20
I-10
I-4
tp953
a(I-26
I-17
I-11
I2
I62
I8
I-10
I1
tp954
a(lp955
F0.6693115234375
aF-0.08514404296875
aF0.699462890625
aF0.23541259765625
aa(I-28
I-39
I-9
I-3
I7
I3
I5
I-2
tp956
a(I-7
I-39
I3
I7
I17
I15
I11
I-2
tp957
a(I-19
I1
I-13
I-20
I-31
I-14
I-1
I-4
tp958
a(I-2
I-58
I-2
I-12
I-45
I-24
I-5
I0
tp959
a(lp960
F0.670166015625
aF-0.084716796875
aF0.69879150390625
aF0.2352294921875
aa(I-32
I-16
I3
I-2
I-5
I-5
I-12
I-11
tp961
a(I-4
I-47
I-32
I-8
I41
I11
I10
I7
tp962
a(I16
I-73
I9
I15
I30
I18
I-5
I12
tp963
a(I12
I41
I-37
I-23
I-12
I-5
I-4
I-7
tp964
a(lp965
F0.6707763671875
aF-0.08380126953125
aF0.6982421875
aF0.2352294921875
aa(I-32
I43
I17
I2
I26
I-2
I28
I6
tp966
a(I5
I-7
I1
I29
I13
I18
I-4
I18
tp967
a(I-37
I-3
I1
I-10
I6
I-15
I-8
I-9
tp968
a(I8
I24
I20
I7
I-27
I7
I-7
I-8
tp969
a(lp970
F0.6702880859375
aF-0.083984375
aF0.6986083984375
aF0.23553466796875
aa(I30
I-7
I28
I-24
I-13
I-21
I-4
I15
tp971
a(I-10
I-14
I-23
I27
I34
I6
I-8
I-15
tp972
a(I-6
I19
I16
I-21
I-22
I9
I9
I8
tp973
a(I-15
I-55
I-10
I-1
I12
I-23
I-12
I-16
tp974
a(lp975
F0.67034912109375
aF-0.083740234375
aF0.6986083984375
aF0.235595703125
aa(I-48
I-8
I-11
I8
I73
I35
I0
I-4
tp976
a(I17
I10
I11
I1
I-48
I-27
I-1
I4
tp977
a(I6
I4
I-27
I-7
I-4
I-25
I-15
I-8
tp978
a(I-43
I-33
I2
I-18
I-1
I-5
I0
I2
tp979
a(lp980
F0.67120361328125
aF-0.08404541015625
aF0.69769287109375
aF0.23583984375
aa(I0
I4
I20
I27
I50
I11
I5
I0
tp981
a(I-9
I-7
I12
I41
I86
I29
I0
I0
tp982
a(I28
I-15
I2
I-76
I-47
I-23
I-5
I2
tp983
a(I-21
I30
I11
I56
I7
I2
I2
I-8
tp984
a(lp985
F0.672119140625
aF-0.0836181640625
aF0.6966552734375
aF0.23638916015625
aa(I9
I-25
I-6
I9
I25
I-9
I2
I4
tp986
a(I37
I17
I-5
I-2
I-17
I14
I-13
I4
tp987
a(I-8
I-1
I-12
I-23
I-29
I-28
I-2
I1
tp988
a(I-38
I47
I8
I-6
I50
I12
I-10
I-5
tp989
a(I-23
I-4
I-10
I-43
I0
I-21
I-12
I-2
tp990
a(I29
I-42
I1
I20
I36
I19
I-4
I-4
tp991
a(I20
I-23
I-3
I-7
I-15
I0
I21
I5
tp992
a(I-12
I-39
I-5
I-11
I-9
I4
I-6
I-8
tp993
a(lp994
F0.6722412109375
aF-0.08184814453125
aF0.69677734375
aF0.23614501953125
aa(I11
I12
I-1
I8
I-11
I1
I3
I9
tp995
a(I6
I-15
I-2
I-17
I-54
I-29
I-8
I-5
tp996
a(I-55
I-45
I-1
I-4
I-2
I10
I-13
I-13
tp997
a(I5
I24
I-16
I-35
I-60
I-40
I-1
I0
tp998
a(lp999
F0.67291259765625
aF-0.0804443359375
aF0.69622802734375
aF0.2364501953125
aa(I-55
I-19
I-9
I-8
I1
I-3
I-7
I1
tp1000
a(I45
I-1
I1
I-27
I58
I13
I4
I0
tp1001
a(I-3
I-3
I9
I36
I-65
I-9
I-10
I-1
tp1002
a(I24
I-7
I-9
I-3
I29
I9
I9
I8
tp1003
a(I-35
I3
I8
I14
I42
I-2
I-11
I-9
tp1004
a(I-12
I-24
I-13
I-39
I-73
I0
I6
I8
tp1005
a(lp1006
F0.6749267578125
aF-0.08038330078125
aF0.69427490234375
aF0.23638916015625
aa(I26
I28
I2
I-22
I29
I-5
I-7
I-15
tp1007
a(I-11
I2
I3
I17
I-32
I-4
I-2
I6
tp1008
a(I-41
I-10
I-14
I0
I39
I1
I1
I-8
tp1009
a(I25
I5
I2
I24
I68
I25
I-2
I-1
tp1010
a(I48
I26
I-3
I11
I21
I12
I1
I-1
tp1011
a(I-5
I-59
I-3
I2
I48
I8
I-2
I-1
tp1012
a(I-13
I-10
I-3
I-6
I-71
I-3
I9
I7
tp1013
a(I-9
I-19
I-15
I-10
I38
I4
I0
I-3
tp1014
a(lp1015
F0.674072265625
aF-0.07952880859375
aF0.6951904296875
aF0.236572265625
aa(I1
I-2
I5
I9
I33
I-2
I-6
I-6
tp1016
a(I-70
I-17
I-6
I17
I-15
I3
I-8
I-2
tp1017
a(I-37
I-29
I-3
I-50
I-3
I-10
I-17
I-6
tp1018
a(I55
I20
I20
I33
I12
I2
I23
I12
tp1019
a(lp1020
F0.67388916015625
aF-0.08013916015625
aF0.6953125
aF0.2364501953125
aa(I-14
I15
I-5
I-2
I33
I16
I-1
I7
tp1021
a(I8
I-6
I5
I12
I-38
I1
I11
I9
tp1022
a(I13
I-21
I-2
I4
I31
I14
I0
I-9
tp1023
a(I-2
I8
I-7
I-60
I-62
I-24
I-13
I-16
tp1024
a(lp1025
F0.6741943359375
aF-0.08074951171875
aF0.69451904296875
aF0.23785400390625
aa(I13
I-6
I-11
I6
I26
I2
I5
I-4
tp1026
a(I32
I-25
I-6
I14
I9
I10
I1
I19
tp1027
a(I-41
I19
I15
I-10
I-18
I-5
I3
I-13
tp1028
a(I13
I73
I2
I18
I4
I8
I16
I6
tp1029
a(lp1030
F0.674560546875
aF-0.081298828125
aF0.6942138671875
aF0.23724365234375
aa(I-19
I50
I-9
I-14
I-116
I-14
I-10
I-11
tp1031
a(I-3
I13
I13
I26
I112
I33
I15
I5
tp1032
a(I-25
I-13
I-10
I11
I-38
I10
I11
I3
tp1033
a(I-10
I23
I11
I-31
I-94
I-12
I-4
I0
tp1034
a(lp1035
F0.675537109375
aF-0.08197021484375
aF0.69281005859375
aF0.23846435546875
aa(I29
I-24
I-3
I-1
I-36
I-18
I-12
I-11
tp1036
a(I-25
I-7
I-2
I-15
I58
I5
I-12
I-6
tp1037
a(I18
I52
I10
I-6
I30
I10
I22
I10
tp1038
a(I-19
I37
I-5
I21
I35
I19
I-1
I1
tp1039
a(lp1040
F0.67431640625
aF-0.0831298828125
aF0.693603515625
aF0.23931884765625
aa(I10
I-59
I6
I28
I40
I6
I6
I-5
tp1041
a(I13
I-7
I-8
I-38
I-50
I-8
I7
I6
tp1042
a(I-11
I-23
I0
I28
I47
I-13
I0
I-7
tp1043
a(I57
I39
I-16
I33
I6
I18
I-15
I11
tp1044
a(I2
I-15
I-22
I-7
I9
I0
I-15
I-8
tp1045
a(I-52
I-16
I-4
I-13
I-5
I-2
I5
I-9
tp1046
a(I21
I8
I17
I35
I81
I29
I2
I8
tp1047
a(I-34
I-80
I-16
I-6
I-53
I-13
I-16
I-10
tp1048
a(lp1049
F0.67596435546875
aF-0.0816650390625
aF0.69195556640625
aF0.23980712890625
aa(I28
I2
I1
I-38
I-14
I5
I42
I17
tp1050
a(I-38
I49
I-7
I44
I64
I37
I-2
I-20
tp1051
a(I-4
I28
I-8
I0
I-10
I-7
I-5
I4
tp1052
a(I28
I-24
I-5
I9
I16
I-3
I11
I11
tp1053
a(I14
I32
I5
I-15
I-54
I-10
I-9
I-2
tp1054
a(I-12
I-7
I-7
I-23
I-26
I-10
I-4
I-5
tp1055
a(lp1056
F0.67730712890625
aF-0.08233642578125
aF0.69110107421875
aF0.23822021484375
aa(I13
I11
I1
I25
I65
I26
I8
I3
tp1057
a(I-2
I-32
I-11
I-4
I-44
I-17
I-19
I-11
tp1058
a(I-33
I56
I3
I-8
I-71
I-11
I1
I-6
tp1059
a(I20
I27
I3
I10
I16
I9
I-5
I3
tp1060
a(lp1061
F0.67681884765625
aF-0.08209228515625
aF0.6915283203125
aF0.23858642578125
aa(I-7
I17
I-5
I10
I58
I20
I11
I9
tp1062
a(I-6
I19
I-1
I-18
I-25
I-1
I-14
I3
tp1063
a(I27
I-1
I-5
I-12
I-58
I-35
I12
I0
tp1064
a(I-46
I18
I-7
I-4
I27
I20
I-4
I-18
tp1065
a(I-13
I15
I-20
I-78
I-29
I-11
I-11
I-1
tp1066
a(I28
I-37
I17
I84
I11
I-14
I4
I4
tp1067
a(I-7
I90
I2
I-9
I16
I31
I2
I-3
tp1068
a(I32
I-42
I-19
I-20
I-89
I-46
I-4
I11
tp1069
a(lp1070
F0.677001953125
aF-0.08203125
aF0.6917724609375
aF0.23724365234375
aa(I-6
I-13
I-9
I-38
I12
I-11
I-31
I-15
tp1071
a(I-21
I17
I12
I5
I-11
I5
I29
I11
tp1072
a(I-19
I-11
I-3
I16
I-24
I0
I-17
I-8
tp1073
a(I-9
I-17
I6
I-22
I-15
I-8
I-10
I-10
tp1074
a(lp1075
F0.67626953125
aF-0.08209228515625
aF0.692626953125
aF0.23681640625
aa(I28
I9
I12
I22
I27
I-6
I15
I3
tp1076
a(I-82
I-41
I-29
I-7
I10
I10
I-8
I-10
tp1077
a(I84
I75
I12
I25
I77
I-2
I-1
I8
tp1078
a(I-44
I-39
I0
I-6
I-94
I-15
I-12
I1
tp1079
a(I7
I-16
I15
I0
I-66
I-4
I6
I5
tp1080
a(I6
I8
I-14
I-20
I-18
I-51
I-43
I-19
tp1081
a(lp1082
F0.67626953125
aF-0.0821533203125
aF0.692626953125
aF0.23681640625
aa(I-4
I12
I-8
I-39
I0
I14
I35
I12
tp1083
a(I2
I-17
I9
I41
I9
I1
I-8
I-2
tp1084
a(I-23
I17
I-16
I-8
I45
I16
I9
I0
tp1085
a(I2
I-54
I-8
I11
I37
I15
I4
I-1
tp1086
a(I-14
I3
I2
I-7
I35
I12
I-8
I-7
tp1087
a(I-11
I31
I19
I42
I-3
I7
I-8
I-4
tp1088
a(lp1089
F0.67767333984375
aF-0.082763671875
aF0.69097900390625
aF0.23736572265625
aa(I4
I-14
I1
I-16
I-1
I-13
I9
I11
tp1090
a(I9
I10
I0
I-4
I14
I12
I4
I0
tp1091
a(I6
I-18
I4
I4
I25
I13
I-9
I-1
tp1092
a(I-24
I-7
I-16
I-37
I-75
I-34
I-21
I-15
tp1093
a(lp1094
F0.6771240234375
aF-0.08270263671875
aF0.69146728515625
aF0.2376708984375
aa(I-19
I-62
I-7
I35
I0
I5
I-6
I-5
tp1095
a(I12
I29
I9
I12
I25
I9
I-7
I1
tp1096
a(I4
I-13
I5
I20
I33
I19
I19
I4
tp1097
a(I13
I40
I18
I0
I2
I-2
I6
I0
tp1098
a(lp1099
F0.67681884765625
aF-0.08258056640625
aF0.69171142578125
aF0.23785400390625
aa(lp1100
F0.6771240234375
aF-0.08221435546875
aF0.69146728515625
aF0.23785400390625
aa(I-8
I10
I-9
I-9
I-22
I-8
I-6
I2
tp1101
a(I-20
I-16
I-12
I-18
I-3
I-5
I0
I-3
tp1102
a(I22
I-11
I1
I11
I3
I-7
I1
I-2
tp1103
a(I1
I-18
I-12
I6
I64
I18
I-17
I-1
tp1104
a(lp1105
F0.6766357421875
aF-0.08172607421875
aF0.69195556640625
aF0.238037109375
aa(I0
I-9
I4
I7
I-3
I0
I5
I-2
tp1106
a(I-33
I-5
I-14
I4
I5
I4
I5
I8
tp1107
a(lp1108
F0.67657470703125
aF-0.0816650390625
aF0.6917724609375
aF0.2386474609375
aa(I7
I27
I4
I12
I10
I4
I9
I-3
tp1109
a(I12
I-40
I-11
I3
I33
I2
I-6
I5
tp1110
a(I17
I0
I1
I31
I68
I19
I6
I-4
tp1111
a(I-32
I13
I7
I-22
I-93
I-19
I-7
I-7
tp1112
a(lp1113
F0.67584228515625
aF-0.080810546875
aF0.6927490234375
aF0.23809814453125
aa(I18
I-3
I-21
I32
I-2
I5
I-11
I-6
tp1114
a(I-55
I-25
I-4
I-43
I-45
I-17
I-4
I-15
tp1115
a(I29
I-20
I-3
I-3
I10
I-8
I-14
I3
tp1116
a(I4
I27
I29
I5
I-38
I-11
I-14
I2
tp1117
a(lp1118
F0.675537109375
aF-0.08038330078125
aF0.6927490234375
aF0.23907470703125
aa(I-23
I-13
I-2
I22
I24
I6
I-6
I-2
tp1119
a(I-10
I15
I23
I-9
I-13
I0
I7
I9
tp1120
a(lp1121
F0.67706298828125
aF-0.0799560546875
aF0.691162109375
aF0.23956298828125
aa(I-8
I-20
I-19
I11
I-1
I0
I6
I5
tp1122
a(I-42
I29
I11
I-2
I31
I3
I-21
I-15
tp1123
a(I36
I1
I-12
I-2
I-31
I0
I4
I5
tp1124
a(I24
I21
I-10
I-1
I-8
I-3
I2
I-2
tp1125
a(lp1126
F0.67572021484375
aF-0.07989501953125
aF0.69305419921875
aF0.2379150390625
aa(I-6
I52
I8
I8
I27
I9
I-9
I2
tp1127
a(I8
I-43
I-17
I-25
I-3
I2
I15
I4
tp1128
a(I-9
I1
I19
I5
I-7
I-12
I-7
I-3
tp1129
a(I-25
I-15
I1
I19
I11
I15
I-3
I-4
tp1130
a(lp1131
F0.67572021484375
aF-0.0799560546875
aF0.69287109375
aF0.23846435546875
aa(lp1132
F0.676513671875
aF-0.0797119140625
aF0.69195556640625
aF0.239013671875
aa(I15
I-10
I4
I0
I44
I3
I5
I6
tp1133
a(I-30
I-1
I-13
I15
I22
I14
I12
I-4
tp1134
a(I-5
I-1
I4
I7
I-49
I-10
I-15
I1
tp1135
a(I-5
I23
I-5
I-30
I-20
I-3
I16
I2
tp1136
a(lp1137
F0.6766357421875
aF-0.07977294921875
aF0.69158935546875
aF0.239501953125
aa(I-5
I37
I19
I-22
I-2
I0
I-3
I-17
tp1138
a(I5
I-26
I-38
I-11
I10
I-9
I-9
I-1
tp1139
a(lp1140
F0.6763916015625
aF-0.080078125
aF0.6922607421875
aF0.23822021484375
aa(I0
I29
I21
I1
I-29
I1
I-5
I-6
tp1141
a(I8
I4
I-3
I1
I1
I3
I11
I6
tp1142
a(I-21
I-14
I1
I11
I-1
I-4
I-1
I-5
tp1143
a(I7
I-4
I19
I-3
I24
I4
I-9
I-3
tp1144
a(lp1145
F0.67626953125
aF-0.07904052734375
aF0.69268798828125
aF0.2376708984375
aa(I34
I28
I3
I-12
I5
I0
I-1
I-3
tp1146
a(I5
I47
I-8
I10
I49
I18
I4
I4
tp1147
a(I-38
I2
I6
I20
I-7
I3
I-13
I-6
tp1148
a(I22
I-32
I0
I-24
I-52
I-22
I4
I-10
tp1149
a(lp1150
F0.67626953125
aF-0.07904052734375
aF0.69268798828125
aF0.2376708984375
aa(lp1151
F0.6761474609375
aF-0.0782470703125
aF0.6927490234375
aF0.2381591796875
aa(I20
I38
I-8
I0
I18
I-5
I-20
I-4
tp1152
a(I-21
I-56
I-4
I-37
I-19
I6
I16
I0
tp1153
a(I45
I21
I12
I29
I9
I3
I-1
I-7
tp1154
a(I-33
I31
I6
I15
I28
I-11
I-1
I4
tp1155
a(lp1156
F0.6761474609375
aF-0.07818603515625
aF0.6927490234375
aF0.23822021484375
aa(I-5
I21
I3
I13
I-8
I-31
I2
I8
tp1157
a(I-11
I-14
I4
I-28
I-18
I-1
I-16
I-16
tp1158
a(lp1159
F0.67431640625
aF-0.07733154296875
aF0.693359375
aF0.24188232421875
aa(I10
I-17
I-7
I26
I26
I13
I3
I2
tp1160
a(I21
I-5
I-8
I17
I-9
I0
I-6
I-6
tp1161
a(I-36
I-51
I-14
I-16
I5
I-24
I11
I1
tp1162
a(I27
I4
I3
I10
I6
I16
I-6
I3
tp1163
a(lp1164
F0.67193603515625
aF-0.0777587890625
aF0.69549560546875
aF0.24212646484375
aa(I7
I16
I-5
I5
I-12
I-10
I-8
I-6
tp1165
a(I14
I8
I11
I15
I10
I-3
I1
I7
tp1166
a(I-4
I-44
I-16
I11
I70
I30
I-3
I-6
tp1167
a(I-9
I29
I27
I11
I-25
I1
I-4
I6
tp1168
a(lp1169
F0.6712646484375
aF-0.07733154296875
aF0.69610595703125
aF0.24249267578125
aa(I-25
I-19
I-3
I-39
I-106
I-38
I-8
I-4
tp1170
a(I23
I-18
I-11
I-8
I2
I-25
I-24
I-3
tp1171
a(lp1172
F0.6717529296875
aF-0.0760498046875
aF0.69488525390625
aF0.24493408203125
aa(I-21
I-2
I-5
I15
I-4
I18
I24
I4
tp1173
a(I-42
I0
I10
I-3
I11
I-9
I0
I-15
tp1174
a(I7
I22
I-2
I23
I41
I22
I3
I9
tp1175
a(I-30
I-9
I4
I6
I5
I8
I-4
I1
tp1176
a(I32
I5
I-2
I-27
I0
I3
I-11
I8
tp1177
a(I-5
I-14
I1
I17
I-1
I-6
I-2
I-12
tp1178
a(lp1179
F0.67205810546875
aF-0.0770263671875
aF0.69439697265625
aF0.24517822265625
aa(I51
I-23
I-12
I-26
I-38
I7
I13
I18
tp1180
a(I-25
I-15
I5
I4
I-36
I-26
I-26
I-12
tp1181
a(I-3
I46
I-8
I3
I42
I10
I5
I6
tp1182
a(I-37
I-32
I2
I23
I42
I19
I24
I5
tp1183
a(lp1184
F0.672119140625
aF-0.07763671875
aF0.69415283203125
aF0.24554443359375
aa(I-39
I-41
I-13
I-23
I-10
I-12
I-16
I-5
tp1185
a(I33
I-43
I-10
I8
I21
I21
I20
I7
tp1186
a(I10
I26
I2
I-9
I9
I-10
I0
I-9
tp1187
a(I27
I14
I-3
I36
I36
I15
I-4
I3
tp1188
a(lp1189
F0.67254638671875
aF-0.0777587890625
aF0.6937255859375
aF0.24566650390625
aa(I1
I-14
I-5
I-57
I-108
I-37
I-7
I-12
tp1190
a(I32
I-32
I-1
I48
I34
I-8
I-14
I1
tp1191
a(lp1192
F0.673095703125
aF-0.07830810546875
aF0.693359375
aF0.24481201171875
aa(I-4
I65
I11
I-10
I26
I16
I-4
I-4
tp1193
a(I21
I11
I2
I25
I26
I6
I4
I4
tp1194
a(I-25
I-1
I0
I-2
I-9
I3
I8
I4
tp1195
a(I-10
I1
I0
I-26
I-4
I6
I5
I-6
tp1196
a(lp1197
F0.67364501953125
aF-0.07879638671875
aF0.6929931640625
aF0.24432373046875
aa(I31
I-5
I5
I-2
I-9
I7
I-9
I-5
tp1198
a(I-45
I-13
I-24
I-44
I-12
I-13
I-8
I-8
tp1199
a(I43
I-10
I18
I35
I5
I6
I-10
I9
tp1200
a(I33
I19
I11
I25
I27
I16
I31
I10
tp1201
a(lp1202
F0.6737060546875
aF-0.07891845703125
aF0.69281005859375
aF0.24456787109375
aa(lp1203
F0.673583984375
aF-0.07830810546875
aF0.6929931640625
aF0.24456787109375
aa(I5
I25
I9
I68
I53
I20
I7
I-3
tp1204
a(I-49
I7
I0
I-13
I-56
I-18
I-1
I-3
tp1205
a(I14
I-5
I-9
I-9
I-36
I-33
I-8
I6
tp1206
a(I58
I17
I-3
I-5
I34
I17
I-1
I11
tp1207
a(lp1208
F0.6734619140625
aF-0.07818603515625
aF0.69293212890625
aF0.2451171875
aa(I29
I4
I1
I-21
I12
I9
I5
I-1
tp1209
a(I-19
I-32
I-5
I19
I11
I-2
I3
I-12
tp1210
a(lp1211
F0.67413330078125
aF-0.0775146484375
aF0.69256591796875
aF0.24444580078125
aa(I4
I67
I9
I9
I-8
I0
I-6
I2
tp1212
a(I46
I-6
I0
I-8
I-8
I-6
I-2
I3
tp1213
a(I-13
I-9
I-17
I4
I-1
I1
I7
I-2
tp1214
a(I11
I9
I10
I-2
I-10
I-1
I-9
I-2
tp1215
a(lp1216
F0.6751708984375
aF-0.0743408203125
aF0.6920166015625
aF0.24420166015625
aa(I-19
I-18
I7
I-18
I-19
I-11
I-1
I-2
tp1217
a(I44
I36
I-3
I12
I33
I8
I-3
I9
tp1218
a(I-67
I-13
I-2
I16
I34
I15
I-4
I-10
tp1219
a(I2
I-16
I-3
I-8
I14
I1
I-7
I0
tp1220
a(lp1221
F0.675537109375
aF-0.07373046875
aF0.69171142578125
aF0.244140625
aa(I-19
I-9
I-12
I7
I6
I8
I3
I-5
tp1222
a(I-23
I-8
I-2
I11
I6
I-4
I-3
I-6
tp1223
a(lp1224
F0.67547607421875
aF-0.07354736328125
aF0.691650390625
aF0.24468994140625
aa(I-15
I-33
I6
I-2
I51
I11
I10
I5
tp1225
a(I51
I17
I14
I7
I-26
I26
I6
I1
tp1226
a(I-16
I9
I-15
I-13
I-34
I-14
I-6
I-4
tp1227
a(I-12
I-30
I-8
I-25
I-63
I-41
I-10
I-2
tp1228
a(I28
I15
I3
I-9
I6
I3
I1
I-3
tp1229
a(I-19
I7
I-9
I5
I22
I10
I11
I-1
tp1230
a(lp1231
F0.67510986328125
aF-0.074462890625
aF0.69134521484375
aF0.2462158203125
aa(I-17
I10
I-4
I-39
I-86
I-19
I-8
I0
tp1232
a(I63
I19
I4
I19
I66
I6
I1
I5
tp1233
a(I-10
I-39
I-21
I-1
I31
I-1
I1
I-1
tp1234
a(I-15
I3
I2
I2
I23
I13
I16
I-5
tp1235
a(lp1236
F0.67462158203125
aF-0.07293701171875
aF0.69110107421875
aF0.248779296875
aa(I-5
I-12
I-2
I-91
I-79
I-32
I-3
I-5
tp1237
a(I-12
I-14
I-18
I6
I-8
I-22
I4
I-3
tp1238
a(I-6
I15
I7
I-2
I8
I19
I3
I-4
tp1239
a(I23
I9
I21
I-39
I-10
I-18
I3
I4
tp1240
a(lp1241
F0.67449951171875
aF-0.07275390625
aF0.6912841796875
aF0.24853515625
aa(I-1
I32
I8
I-4
I28
I11
I-3
I-9
tp1242
a(I-18
I9
I-2
I17
I0
I5
I2
I-1
tp1243
a(lp1244
F0.6749267578125
aF-0.07159423828125
aF0.69122314453125
aF0.247802734375
aa(I-17
I30
I6
I-2
I20
I-7
I-3
I-7
tp1245
a(I-33
I-4
I4
I33
I78
I33
I6
I0
tp1246
a(I62
I-3
I-1
I-13
I-66
I-8
I-2
I5
tp1247
a(I-2
I4
I-3
I-23
I-6
I-26
I-17
I1
tp1248
a(I-15
I22
I-10
I1
I3
I-7
I-8
I-5
tp1249
a(I-16
I-22
I1
I-9
I6
I10
I-12
I4
tp1250
a(lp1251
F0.67657470703125
aF-0.0714111328125
aF0.6900634765625
aF0.24676513671875
aa(I5
I31
I-4
I-10
I-2
I-8
I11
I-6
tp1252
a(I-22
I-16
I-6
I6
I-19
I-12
I-9
I0
tp1253
a(I-13
I15
I7
I-5
I4
I4
I15
I-4
tp1254
a(I-13
I-21
I-11
I0
I3
I7
I3
I3
tp1255
a(lp1256
F0.67681884765625
aF-0.070556640625
aF0.69036865234375
aF0.24542236328125
aa(I17
I-1
I-1
I-14
I-41
I-5
I-3
I0
tp1257
a(I7
I1
I-11
I-18
I3
I-13
I4
I-5
tp1258
a(I-32
I-17
I-15
I-8
I-28
I0
I1
I-3
tp1259
a(I-36
I20
I0
I-8
I-23
I-10
I4
I5
tp1260
a(lp1261
F0.67669677734375
aF-0.07000732421875
aF0.69061279296875
aF0.24530029296875
aa(I-3
I7
I-3
I-57
I-103
I-56
I-10
I5
tp1262
a(I-2
I-18
I-6
I17
I51
I2
I-9
I-9
tp1263
a(lp1264
F0.6763916015625
aF-0.06793212890625
aF0.6910400390625
aF0.245361328125
aa(I-70
I7
I-12
I21
I12
I15
I9
I-2
tp1265
a(I20
I34
I-10
I-31
I12
I-1
I-6
I1
tp1266
a(I24
I-5
I7
I31
I41
I20
I0
I0
tp1267
a(I49
I6
I11
I3
I7
I12
I3
I9
tp1268
a(lp1269
F0.67626953125
aF-0.0679931640625
aF0.6912841796875
aF0.2451171875
aa(I26
I28
I22
I13
I25
I8
I0
I9
tp1270
a(I-49
I12
I-8
I27
I6
I6
I4
I-5
tp1271
a(I25
I0
I-7
I-6
I-22
I1
I-3
I-3
tp1272
a(I-24
I-25
I-11
I10
I22
I-2
I0
I-10
tp1273
a(lp1274
F0.6763916015625
aF-0.068115234375
aF0.69110107421875
aF0.245361328125
aa(I39
I-8
I-6
I-6
I-66
I-30
I-9
I1
tp1275
a(I-16
I-12
I-12
I-15
I-11
I-9
I1
I-7
tp1276
a(I-9
I28
I-1
I-15
I14
I2
I-5
I-8
tp1277
a(I-27
I-35
I-7
I36
I49
I17
I-11
I-1
tp1278
a(lp1279
F0.6761474609375
aF-0.0689697265625
aF0.6910400390625
aF0.2457275390625
aa(I20
I-5
I8
I13
I25
I26
I15
I4
tp1280
a(I-51
I11
I7
I-8
I-6
I1
I1
I8
tp1281
a(I16
I-6
I-3
I3
I33
I19
I9
I1
tp1282
a(I-4
I-32
I-8
I-11
I-31
I-16
I-7
I0
tp1283
a(lp1284
F0.67608642578125
aF-0.0694580078125
aF0.691162109375
aF0.2454833984375
aa(I-7
I16
I4
I-22
I-30
I-20
I2
I2
tp1285
a(I-11
I-17
I-9
I7
I43
I10
I-2
I-3
tp1286
a(I8
I11
I25
I12
I-15
I19
I-3
I-6
tp1287
a(I-7
I-64
I-23
I-14
I-20
I-18
I12
I3
tp1288
a(lp1289
F0.67657470703125
aF-0.0684814453125
aF0.68975830078125
aF0.2484130859375
aa(I28
I24
I-3
I15
I59
I19
I6
I4
tp1290
a(I20
I22
I14
I10
I22
I45
I13
I9
tp1291
a(I10
I7
I-5
I0
I-35
I-37
I-11
I-4
tp1292
a(I-31
I3
I7
I-16
I23
I-9
I-10
I-7
tp1293
a(lp1294
F0.67608642578125
aF-0.068603515625
aF0.690185546875
aF0.24835205078125
aa(I14
I13
I-8
I-13
I38
I9
I10
I4
tp1295
a(I40
I-20
I-2
I19
I-7
I33
I0
I1
tp1296
a(lp1297
F0.6756591796875
aF-0.06829833984375
aF0.69036865234375
aF0.249267578125
aa(I0
I5
I-2
I-20
I-13
I-37
I-12
I1
tp1298
a(I11
I-37
I-8
I21
I34
I10
I-2
I7
tp1299
a(I-36
I-14
I4
I-4
I-33
I1
I-12
I-20
tp1300
a(I30
I22
I-7
I-17
I15
I-10
I9
I8
tp1301
a(I-15
I-3
I-2
I-1
I7
I13
I10
I10
tp1302
a(I-18
I16
I7
I3
I-19
I-12
I-7
I-5
tp1303
a(lp1304
F0.67645263671875
aF-0.06854248046875
aF0.68939208984375
aF0.2496337890625
aa(I-2
I0
I-17
I39
I41
I5
I-3
I-3
tp1305
a(I-18
I-34
I-9
I-32
I-57
I-24
I-14
I-8
tp1306
a(I38
I34
I-1
I-17
I-37
I-10
I-23
I-5
tp1307
a(I-16
I5
I-4
I-9
I-1
I2
I16
I2
tp1308
a(lp1309
F0.67620849609375
aF-0.06866455078125
aF0.689453125
aF0.250244140625
aa(I0
I-4
I7
I-5
I-54
I-11
I26
I10
tp1310
a(I1
I19
I-7
I-28
I-46
I-37
I-8
I0
tp1311
a(I-2
I30
I8
I5
I26
I7
I4
I4
tp1312
a(I-21
I-5
I-15
I-12
I-28
I-16
I-13
I-13
tp1313
a(lp1314
F0.67584228515625
aF-0.069091796875
aF0.689697265625
aF0.25054931640625
aa(I-56
I0
I2
I25
I64
I26
I5
I-4
tp1315
a(I4
I-7
I0
I-13
I-32
I-1
I10
I6
tp1316
a(lp1317
F0.67498779296875
aF-0.0699462890625
aF0.690185546875
aF0.25115966796875
aa(I12
I18
I-4
I3
I-13
I-6
I-2
I-3
tp1318
a(I36
I-23
I-10
I-18
I16
I6
I1
I6
tp1319
aa(lp1320
(I-17
I36
I8
I-5
I-36
I-37
I-8
I-1
tp1321
a(I-19
I44
I27
I38
I93
I38
I-10
I-3
tp1322
a(I22
I12
I-2
I17
I-128
I10
I48
I10
tp1323
a(I6
I15
I-2
I-40
I45
I-14
I0
I7
tp1324
a(lp1325
F0.685302734375
aF-0.046875
aF0.67083740234375
aF0.27923583984375
aa(I-18
I25
I3
I55
I117
I64
I16
I-7
tp1326
a(I9
I-36
I-11
I-77
I-81
I-75
I-11
I15
tp1327
a(I9
I36
I7
I-42
I65
I4
I-2
I-7
tp1328
a(I-59
I-62
I-16
I4
I20
I-20
I-23
I-13
tp1329
a(lp1330
F0.68438720703125
aF-0.04779052734375
aF0.6717529296875
aF0.279296875
aa(I-25
I1
I13
I15
I9
I28
I-25
I-6
tp1331
a(I15
I23
I-1
I40
I78
I85
I40
I15
tp1332
a(lp1333
F0.6844482421875
aF-0.04840087890625
aF0.67327880859375
aF0.275146484375
aa(I-39
I20
I19
I-41
I-83
I-97
I-2
I-3
tp1334
a(I5
I9
I-25
I-35
I67
I-52
I-20
I-11
tp1335
a(I19
I56
I3
I42
I86
I51
I-2
I-3
tp1336
a(I-5
I-15
I-7
I-60
I-106
I-44
I4
I4
tp1337
a(lp1338
F0.6868896484375
aF-0.04541015625
aF0.669677734375
aF0.278564453125
aa(I-16
I2
I7
I39
I22
I21
I24
I1
tp1339
a(I-4
I-55
I-3
I5
I1
I-14
I-12
I-3
tp1340
a(I-40
I-14
I-2
I-30
I-35
I24
I1
I-3
tp1341
a(I-32
I9
I-8
I24
I-56
I2
I-6
I-2
tp1342
a(lp1343
F0.68890380859375
aF-0.0423583984375
aF0.6666259765625
aF0.28131103515625
aa(I-10
I-21
I-11
I28
I85
I2
I0
I-7
tp1344
a(I9
I-14
I9
I37
I32
I33
I17
I0
tp1345
a(I8
I24
I5
I-27
I-49
I-51
I6
I11
tp1346
a(I-6
I17
I7
I7
I44
I33
I18
I3
tp1347
a(lp1348
F0.68365478515625
aF-0.0452880859375
aF0.674560546875
aF0.27459716796875
aa(I-41
I-62
I-2
I7
I-40
I-51
I-13
I-29
tp1349
a(I17
I-31
I-16
I-16
I-58
I-14
I-14
I6
tp1350
a(I11
I21
I2
I17
I39
I26
I9
I11
tp1351
a(I-27
I19
I1
I3
I-17
I-27
I2
I1
tp1352
a(lp1353
F0.6859130859375
aF-0.042236328125
aF0.67156982421875
aF0.27679443359375
aa(I17
I20
I5
I-17
I4
I40
I12
I1
tp1354
a(I-25
I32
I4
I-5
I-58
I-57
I-2
I7
tp1355
a(I22
I6
I-8
I13
I47
I6
I-15
I-11
tp1356
a(I-10
I-21
I-10
I-4
I17
I10
I16
I9
tp1357
a(lp1358
F0.687744140625
aF-0.042724609375
aF0.6700439453125
aF0.27593994140625
aa(I66
I14
I-11
I2
I-4
I11
I-5
I4
tp1359
a(I-12
I24
I11
I-5
I6
I11
I5
I2
tp1360
a(I-1
I-60
I-20
I-19
I-32
I-8
I-9
I-4
tp1361
a(I-41
I8
I15
I-3
I-18
I-1
I-9
I-9
tp1362
a(lp1363
F0.68798828125
aF-0.04290771484375
aF0.67010498046875
aF0.2750244140625
aa(I-31
I56
I5
I22
I1
I6
I21
I-2
tp1364
a(I-12
I10
I4
I8
I-49
I5
I-4
I0
tp1365
a(I-22
I-41
I-16
I-14
I5
I-17
I-26
I-15
tp1366
a(I-13
I-1
I-6
I-7
I-8
I-10
I2
I2
tp1367
a(lp1368
F0.6890869140625
aF-0.043701171875
aF0.6690673828125
aF0.2747802734375
aa(I50
I9
I7
I3
I5
I14
I2
I5
tp1369
a(I4
I3
I-9
I-7
I18
I21
I4
I9
tp1370
a(I2
I63
I-5
I-38
I-80
I-33
I-6
I-9
tp1371
a(I20
I17
I9
I9
I41
I5
I-1
I7
tp1372
a(lp1373
F0.689208984375
aF-0.04412841796875
aF0.6697998046875
aF0.27264404296875
aa(I-20
I-41
I-16
I4
I-8
I-2
I-1
I-8
tp1374
a(I41
I89
I21
I24
I46
I6
I5
I6
tp1375
a(I-43
I-27
I-4
I-13
I-20
I19
I19
I-8
tp1376
a(I52
I-23
I-9
I-23
I-39
I-32
I-2
I4
tp1377
a(lp1378
F0.68817138671875
aF-0.04437255859375
aF0.67138671875
aF0.2713623046875
aa(I7
I-16
I-7
I11
I0
I-11
I-12
I2
tp1379
a(I38
I9
I-3
I-10
I2
I9
I-10
I-6
tp1380
a(I-14
I-18
I-6
I1
I26
I-5
I9
I1
tp1381
a(I7
I52
I9
I25
I35
I24
I4
I9
tp1382
a(lp1383
F0.68768310546875
aF-0.044677734375
aF0.67156982421875
aF0.27197265625
aa(I41
I76
I21
I92
I115
I96
I2
I17
tp1384
a(I-3
I-3
I5
I80
I28
I-2
I6
I7
tp1385
a(lp1386
F0.68646240234375
aF-0.04693603515625
aF0.67120361328125
aF0.2755126953125
aa(I13
I-24
I25
I4
I-94
I-61
I28
I25
tp1387
a(I18
I-12
I-13
I-12
I27
I28
I-28
I-26
tp1388
a(I31
I12
I-17
I-86
I-112
I-14
I-13
I-3
tp1389
a(I-44
I-15
I2
I26
I16
I0
I16
I4
tp1390
a(I-24
I15
I-24
I-12
I83
I5
I-9
I-11
tp1391
a(I49
I-50
I-22
I-13
I62
I6
I0
I3
tp1392
a(lp1393
F0.68505859375
aF-0.0511474609375
aF0.66900634765625
aF0.28350830078125
aa(I3
I-10
I14
I80
I127
I75
I13
I-1
tp1394
a(I44
I33
I10
I82
I17
I36
I39
I22
tp1395
a(I-27
I-80
I-7
I-39
I-88
I-26
I-1
I-5
tp1396
a(I34
I-15
I-2
I-38
I-61
I-35
I7
I3
tp1397
a(lp1398
F0.68634033203125
aF-0.0504150390625
aF0.66796875
aF0.282958984375
aa(I-13
I-16
I-3
I-4
I14
I14
I-14
I-5
tp1399
a(I25
I0
I26
I57
I108
I7
I18
I9
tp1400
a(I-12
I45
I-1
I51
I25
I49
I7
I1
tp1401
a(I11
I121
I24
I-22
I-116
I-45
I2
I10
tp1402
a(lp1403
F0.68670654296875
aF-0.04949951171875
aF0.66796875
aF0.28240966796875
aa(I32
I21
I-14
I31
I-22
I-16
I-10
I4
tp1404
a(I-2
I12
I5
I16
I91
I27
I24
I0
tp1405
a(lp1406
F0.68902587890625
aF-0.04937744140625
aF0.6676025390625
aF0.27752685546875
aa(I-23
I-55
I-11
I13
I-73
I-5
I0
I5
tp1407
a(I41
I4
I12
I-33
I-29
I-80
I0
I4
tp1408
a(I-36
I-71
I-13
I11
I-1
I28
I-8
I-14
tp1409
a(I-21
I-5
I-6
I-4
I-2
I-42
I-8
I-5
tp1410
a(lp1411
F0.69000244140625
aF-0.050048828125
aF0.6671142578125
aF0.27606201171875
aa(I32
I20
I0
I6
I-69
I-13
I1
I10
tp1412
a(I9
I-25
I-16
I-43
I41
I-6
I-2
I-3
tp1413
a(I-1
I-52
I-8
I10
I-115
I-3
I-14
I-8
tp1414
a(I-2
I5
I4
I49
I106
I-6
I5
I2
tp1415
a(lp1416
F0.6895751953125
aF-0.04986572265625
aF0.66766357421875
aF0.27581787109375
aa(I-32
I-42
I23
I74
I127
I81
I-18
I-12
tp1417
a(I-23
I22
I17
I38
I-74
I72
I48
I19
tp1418
a(I3
I-32
I4
I-13
I8
I-64
I-7
I5
tp1419
a(I39
I21
I-15
I-40
I-98
I-8
I0
I6
tp1420
a(lp1421
F0.68902587890625
aF-0.05194091796875
aF0.66680908203125
aF0.27886962890625
aa(I12
I9
I-1
I-30
I18
I-13
I-2
I0
tp1422
a(I6
I26
I8
I56
I59
I55
I7
I1
tp1423
a(I-10
I-20
I-1
I20
I55
I-51
I-10
I-3
tp1424
a(I-11
I-6
I-24
I-42
I-42
I-23
I4
I-4
tp1425
a(lp1426
F0.6893310546875
aF-0.05126953125
aF0.66729736328125
aF0.27716064453125
aa(I-9
I-29
I5
I-29
I60
I22
I9
I3
tp1427
a(I4
I-2
I13
I120
I127
I29
I6
I-1
tp1428
a(I-6
I74
I0
I-11
I-108
I22
I18
I8
tp1429
a(I49
I24
I-3
I-63
I-89
I-51
I-11
I-3
tp1430
a(lp1431
F0.6905517578125
aF-0.05206298828125
aF0.666748046875
aF0.27532958984375
aa(I6
I-27
I2
I15
I82
I57
I13
I5
tp1432
a(I16
I75
I11
I-2
I-39
I3
I3
I5
tp1433
a(I-15
I-16
I-5
I-23
I-71
I-31
I-10
I-10
tp1434
a(I-11
I-29
I-7
I0
I33
I15
I17
I-5
tp1435
a(lp1436
F0.69134521484375
aF-0.05194091796875
aF0.66632080078125
aF0.27435302734375
aa(I39
I-28
I-9
I-15
I-29
I-26
I-5
I1
tp1437
a(I12
I73
I10
I10
I8
I17
I10
I1
tp1438
a(lp1439
F0.69256591796875
aF-0.0521240234375
aF0.66534423828125
aF0.27362060546875
aa(I-28
I-19
I-13
I-16
I-61
I-7
I-14
I-2
tp1440
a(I20
I-12
I0
I-2
I28
I7
I0
I-3
tp1441
a(I-17
I21
I5
I5
I-20
I12
I1
I-5
tp1442
a(I32
I35
I-4
I3
I3
I-17
I0
I6
tp1443
a(I8
I4
I-7
I20
I67
I-7
I12
I1
tp1444
a(I-21
I-4
I17
I23
I-7
I31
I-1
I13
tp1445
a(lp1446
F0.693115234375
aF-0.0528564453125
aF0.66558837890625
aF0.27130126953125
aa(I-13
I-5
I-15
I-35
I-73
I38
I22
I-6
tp1447
a(I-9
I-30
I-14
I-7
I-35
I-96
I-7
I-8
tp1448
a(I4
I-17
I-2
I14
I42
I40
I-11
I8
tp1449
a(I0
I23
I8
I17
I57
I41
I9
I2
tp1450
a(lp1451
F0.69903564453125
aF-0.05206298828125
aF0.66009521484375
aF0.2698974609375
aa(I-28
I0
I-7
I-4
I-50
I-9
I5
I-1
tp1452
a(I20
I9
I-4
I0
I20
I18
I-6
I9
tp1453
a(I-15
I-50
I-17
I-6
I-16
I-63
I1
I-8
tp1454
a(I-33
I-37
I-11
I-2
I-45
I10
I-2
I-9
tp1455
a(lp1456
F0.7000732421875
aF-0.05059814453125
aF0.6593017578125
aF0.2694091796875
aa(I-22
I19
I9
I-13
I-53
I6
I3
I3
tp1457
a(I-27
I42
I-5
I10
I-19
I-29
I7
I-14
tp1458
a(lp1459
F0.70001220703125
aF-0.0443115234375
aF0.659423828125
aF0.270263671875
aa(I45
I-49
I-1
I20
I91
I80
I-3
I7
tp1460
a(I3
I-22
I2
I-20
I-116
I-105
I-3
I-7
tp1461
a(I-30
I12
I0
I-33
I23
I-1
I-8
I-11
tp1462
a(I4
I-11
I-8
I13
I107
I34
I-5
I3
tp1463
a(I18
I20
I11
I-6
I-24
I-15
I-5
I8
tp1464
a(I4
I-53
I-5
I27
I60
I18
I3
I-4
tp1465
a(lp1466
F0.69677734375
aF-0.0411376953125
aF0.66290283203125
aF0.27069091796875
aa(I33
I-2
I2
I-11
I-53
I-29
I-2
I0
tp1467
a(I-49
I34
I0
I0
I-2
I13
I3
I-7
tp1468
a(I14
I14
I-13
I-20
I-35
I-11
I-4
I-6
tp1469
a(I-36
I-7
I7
I29
I76
I29
I12
I-1
tp1470
a(I-54
I-1
I-1
I18
I59
I7
I0
I-11
tp1471
a(I47
I-9
I0
I-7
I7
I-26
I-6
I-6
tp1472
a(I-49
I-21
I23
I9
I97
I22
I10
I-1
tp1473
a(I44
I23
I9
I41
I29
I2
I3
I5
tp1474
a(lp1475
F0.6951904296875
aF-0.04180908203125
aF0.66326904296875
aF0.27374267578125
aa(I-61
I-53
I1
I-8
I-67
I-20
I2
I-10
tp1476
a(I12
I29
I-14
I-24
I-56
I-35
I8
I6
tp1477
a(I1
I-4
I-14
I-17
I-99
I0
I-10
I-4
tp1478
a(I-20
I-28
I6
I-42
I-43
I-43
I3
I-4
tp1479
a(lp1480
F0.69622802734375
aF-0.04638671875
aF0.66107177734375
aF0.2757568359375
aa(I-9
I-10
I7
I4
I57
I-4
I-13
I1
tp1481
a(I4
I35
I-5
I20
I14
I22
I12
I2
tp1482
a(I-33
I-9
I6
I-5
I35
I25
I-2
I-2
tp1483
a(I27
I-19
I3
I41
I55
I24
I-3
I-4
tp1484
a(lp1485
F0.6971435546875
aF-0.04803466796875
aF0.6580810546875
aF0.28021240234375
aa(I-43
I8
I-3
I-53
I-11
I-15
I14
I-14
tp1486
a(I-20
I-37
I-5
I-17
I105
I11
I6
I-4
tp1487
a(I-32
I-7
I-9
I20
I3
I3
I-3
I-5
tp1488
a(I52
I-11
I16
I39
I93
I15
I-7
I18
tp1489
a(lp1490
F0.69696044921875
aF-0.04779052734375
aF0.65753173828125
aF0.281982421875
aa(I3
I-3
I-8
I-13
I-17
I-15
I-12
I-3
tp1491
a(I-11
I8
I1
I3
I25
I50
I-5
I-2
tp1492
a(I-17
I-61
I-18
I-7
I-117
I-119
I-4
I-6
tp1493
a(I-32
I5
I5
I8
I26
I26
I-9
I-11
tp1494
a(lp1495
F0.69500732421875
aF-0.0474853515625
aF0.66033935546875
aF0.2801513671875
aa(I40
I15
I1
I-10
I7
I14
I8
I9
tp1496
a(I13
I-43
I-13
I17
I37
I-12
I-23
I-19
tp1497
a(I-41
I-1
I-21
I-19
I-23
I-68
I-17
I-9
tp1498
a(I-3
I-46
I6
I-19
I50
I-2
I-1
I-5
tp1499
a(lp1500
F0.693603515625
aF-0.0479736328125
aF0.66204833984375
aF0.2796630859375
aa(I-8
I43
I8
I10
I-8
I6
I-10
I1
tp1501
a(I31
I33
I10
I26
I102
I25
I36
I22
tp1502
a(I-33
I20
I-4
I19
I-15
I33
I7
I-8
tp1503
a(I9
I15
I10
I-18
I10
I23
I6
I8
tp1504
a(lp1505
F0.6947021484375
aF-0.0484619140625
aF0.66058349609375
aF0.2803955078125
aa(I30
I24
I0
I5
I32
I22
I18
I17
tp1506
a(I2
I-45
I2
I14
I-2
I-21
I2
I2
tp1507
a(I-37
I-37
I-10
I-8
I-26
I7
I-26
I-7
tp1508
a(I-14
I35
I1
I-11
I11
I-2
I12
I-6
tp1509
a(lp1510
F0.69476318359375
aF-0.0487060546875
aF0.66058349609375
aF0.2801513671875
aa(I-30
I-19
I-10
I8
I49
I8
I0
I-4
tp1511
a(I-28
I11
I-1
I-10
I-4
I21
I-11
I-1
tp1512
a(lp1513
F0.693359375
aF-0.04931640625
aF0.6624755859375
aF0.27911376953125
aa(I8
I-21
I18
I-22
I-70
I-49
I-26
I-15
tp1514
a(I9
I27
I-7
I-3
I14
I9
I14
I1
tp1515
a(I20
I-15
I-3
I28
I31
I10
I4
I-6
tp1516
a(I-33
I8
I1
I-10
I-14
I2
I1
I-2
tp1517
a(I11
I-21
I-22
I-32
I-128
I-63
I-4
I-9
tp1518
a(I-22
I10
I-16
I-44
I35
I0
I-7
I1
tp1519
a(lp1520
F0.6937255859375
aF-0.04998779296875
aF0.6624755859375
aF0.278076171875
aa(I-70
I-12
I3
I27
I40
I-4
I-6
I-3
tp1521
a(I5
I31
I-7
I-11
I19
I22
I-6
I-9
tp1522
a(I-12
I30
I11
I28
I44
I28
I25
I16
tp1523
a(I33
I-1
I3
I18
I-21
I-8
I-1
I6
tp1524
a(I-11
I46
I-12
I-6
I-6
I-11
I-1
I1
tp1525
a(I15
I-36
I-4
I-13
I-44
I-15
I-19
I-3
tp1526
a(I-11
I40
I16
I-5
I15
I5
I11
I-5
tp1527
a(I51
I-31
I-11
I6
I41
I3
I-9
I-3
tp1528
a(lp1529
F0.69390869140625
aF-0.0509033203125
aF0.6627197265625
aF0.27685546875
aa(I-36
I17
I1
I3
I-33
I-6
I8
I6
tp1530
a(I-3
I40
I-13
I-4
I-19
I-22
I-25
I-15
tp1531
a(I49
I8
I-5
I15
I25
I5
I13
I-1
tp1532
a(I52
I-31
I0
I-17
I-8
I32
I8
I14
tp1533
a(lp1534
F0.69427490234375
aF-0.05145263671875
aF0.66241455078125
aF0.2764892578125
aa(I-7
I1
I-1
I-4
I-78
I-46
I-25
I-11
tp1535
a(I20
I4
I11
I6
I40
I11
I-4
I4
tp1536
a(I-45
I-15
I3
I2
I13
I21
I19
I0
tp1537
a(I25
I7
I-4
I-15
I-49
I-52
I6
I1
tp1538
a(lp1539
F0.69500732421875
aF-0.05126953125
aF0.6614990234375
aF0.27679443359375
aa(I-13
I-47
I-6
I5
I36
I-6
I-13
I-6
tp1540
a(I-7
I52
I16
I-7
I-31
I14
I34
I14
tp1541
a(I-2
I-53
I-24
I-31
I-48
I-21
I16
I-5
tp1542
a(I-40
I-11
I-11
I-14
I-32
I-4
I-16
I-6
tp1543
a(lp1544
F0.6953125
aF-0.051025390625
aF0.66143798828125
aF0.27642822265625
aa(I-11
I-8
I2
I20
I-55
I25
I-3
I-13
tp1545
a(I89
I-7
I-24
I-56
I-67
I-78
I-9
I7
tp1546
a(I-67
I11
I-4
I8
I37
I-1
I-10
I-16
tp1547
a(I-53
I-2
I7
I20
I36
I31
I15
I-3
tp1548
a(lp1549
F0.69573974609375
aF-0.05059814453125
aF0.66107177734375
aF0.27618408203125
aa(I-6
I-25
I-4
I8
I6
I10
I9
I5
tp1550
a(I2
I79
I6
I-8
I2
I8
I-4
I-14
tp1551
a(I58
I18
I13
I-5
I1
I8
I10
I-1
tp1552
a(I4
I-54
I-16
I-6
I-3
I-1
I-4
I8
tp1553
a(lp1554
F0.69659423828125
aF-0.05120849609375
aF0.6602783203125
aF0.27569580078125
aa(I-20
I25
I-6
I-23
I-31
I-16
I9
I-10
tp1555
a(I46
I5
I12
I15
I21
I-3
I-16
I-2
tp1556
a(I-47
I52
I-5
I4
I-13
I6
I12
I10
tp1557
a(I30
I-18
I-10
I-4
I-1
I-3
I-3
I-12
tp1558
a(lp1559
F0.696533203125
aF-0.05206298828125
aF0.66070556640625
aF0.2747802734375
aa(I21
I20
I-3
I29
I26
I9
I7
I12
tp1560
a(I-30
I-18
I5
I12
I18
I9
I0
I-9
tp1561
a(I13
I19
I13
I-16
I1
I8
I14
I6
tp1562
a(I5
I-29
I3
I-20
I-11
I-10
I-21
I-5
tp1563
a(lp1564
F0.6964111328125
aF-0.05230712890625
aF0.66094970703125
aF0.2745361328125
aa(I2
I-6
I13
I-8
I-38
I-26
I-15
I-6
tp1565
a(I-22
I-62
I-8
I1
I-34
I-14
I-14
I2
tp1566
a(I-10
I1
I-3
I-16
I-10
I-1
I-7
I0
tp1567
a(I17
I-17
I1
I7
I29
I9
I-16
I-2
tp1568
a(lp1569
F0.69586181640625
aF-0.05224609375
aF0.6614990234375
aF0.27447509765625
aa(I-29
I20
I-1
I-3
I14
I0
I21
I0
tp1570
a(I-9
I-109
I-11
I4
I4
I5
I-5
I-7
tp1571
a(I3
I-25
I-14
I-13
I-61
I-17
I11
I-3
tp1572
a(I44
I62
I24
I-11
I-9
I-11
I-10
I16
tp1573
a(lp1574
F0.6973876953125
aF-0.052490234375
aF0.6597900390625
aF0.274658203125
aa(I55
I19
I-15
I10
I65
I19
I2
I-8
tp1575
a(I-40
I-8
I9
I-5
I-76
I-7
I-3
I3
tp1576
a(I76
I-42
I-19
I-19
I17
I-6
I-10
I-3
tp1577
a(I27
I-18
I-3
I41
I27
I8
I9
I11
tp1578
a(I-55
I13
I0
I0
I-23
I-16
I25
I-8
tp1579
a(I25
I6
I-10
I-17
I-13
I-7
I-8
I-10
tp1580
a(I-63
I-13
I1
I-16
I-18
I-20
I-18
I1
tp1581
a(I33
I20
I3
I5
I-27
I6
I7
I13
tp1582
a(lp1583
F0.6966552734375
aF-0.05255126953125
aF0.66070556640625
aF0.2742919921875
aa(I10
I21
I11
I6
I-5
I-9
I5
I-12
tp1584
a(I6
I26
I-15
I-5
I67
I23
I-1
I1
tp1585
a(I6
I-23
I-5
I21
I17
I17
I1
I-3
tp1586
a(I15
I-41
I1
I5
I3
I15
I8
I0
tp1587
a(lp1588
F0.6964111328125
aF-0.05242919921875
aF0.6610107421875
aF0.27423095703125
aa(I-29
I-11
I-14
I-1
I26
I8
I0
I3
tp1589
a(I34
I43
I7
I-10
I3
I3
I23
I7
tp1590
a(I-56
I-29
I3
I0
I-8
I-11
I-20
I-1
tp1591
a(I21
I12
I-2
I22
I31
I17
I22
I18
tp1592
a(I-18
I21
I3
I30
I11
I-12
I-4
I0
tp1593
a(I39
I56
I8
I-9
I0
I-4
I-1
I8
tp1594
a(lp1595
F0.69781494140625
aF-0.0528564453125
aF0.65966796875
aF0.27386474609375
aa(I18
I23
I6
I-20
I-19
I-4
I1
I-4
tp1596
a(I-30
I27
I9
I33
I-18
I-11
I-23
I-7
tp1597
a(I-27
I-5
I-1
I-16
I18
I11
I-12
I-13
tp1598
a(I17
I10
I-7
I-4
I0
I-3
I10
I8
tp1599
a(I13
I56
I5
I-14
I-36
I-2
I12
I4
tp1600
a(I-21
I-50
I-6
I-23
I-27
I-29
I-14
I-8
tp1601
a(I35
I32
I-12
I2
I7
I1
I0
I0
tp1602
a(I34
I-52
I6
I21
I25
I3
I-20
I-8
tp1603
a(lp1604
F0.69757080078125
aF-0.053466796875
aF0.6600341796875
aF0.27362060546875
aa(I-31
I41
I0
I12
I-2
I17
I7
I5
tp1605
a(I-17
I-15
I0
I3
I-1
I-7
I14
I9
tp1606
a(I10
I44
I23
I43
I21
I23
I12
I-5
tp1607
a(I7
I2
I-3
I-16
I-3
I-8
I-22
I0
tp1608
a(lp1609
F0.69915771484375
aF-0.05426025390625
aF0.658447265625
aF0.2730712890625
aa(I20
I-4
I-9
I-8
I8
I-6
I11
I-2
tp1610
a(I-41
I39
I4
I16
I-17
I-6
I-14
I-3
tp1611
a(I43
I-22
I-1
I-33
I-5
I9
I18
I11
tp1612
a(I-30
I57
I-2
I-24
I-30
I-10
I0
I0
tp1613
a(lp1614
F0.70098876953125
aF-0.05560302734375
aF0.65679931640625
aF0.2720947265625
aa(I-7
I-1
I-12
I-17
I-42
I-10
I-11
I-4
tp1615
a(I-32
I-2
I5
I1
I-24
I-20
I-1
I-12
tp1616
a(I-15
I-20
I-2
I2
I38
I10
I-10
I-9
tp1617
a(I41
I-2
I7
I1
I-10
I-38
I-11
I-4
tp1618
a(lp1619
F0.700927734375
aF-0.05609130859375
aF0.65704345703125
aF0.2716064453125
aa(I23
I-24
I5
I3
I-11
I-8
I1
I2
tp1620
a(I2
I31
I-1
I-1
I37
I2
I-4
I-2
tp1621
a(I-34
I-6
I-8
I1
I29
I20
I5
I-3
tp1622
a(I-5
I-4
I-5
I8
I-9
I-1
I-11
I-10
tp1623
a(lp1624
F0.6998291015625
aF-0.0567626953125
aF0.6580810546875
aF0.2718505859375
aa(I16
I50
I25
I12
I9
I1
I-2
I13
tp1625
a(I-5
I-13
I-16
I-10
I7
I7
I6
I-3
tp1626
a(I18
I-2
I-26
I-29
I10
I7
I12
I-6
tp1627
a(I-18
I-6
I31
I35
I-7
I-4
I-17
I6
tp1628
a(lp1629
F0.70025634765625
aF-0.0572509765625
aF0.6572265625
aF0.2725830078125
aa(I-28
I2
I-11
I-27
I-49
I-10
I6
I2
tp1630
a(I30
I-29
I-1
I11
I-9
I-12
I-9
I-11
tp1631
a(I-35
I35
I4
I0
I33
I4
I-6
I-6
tp1632
a(I-41
I1
I-30
I-4
I21
I11
I16
I0
tp1633
a(I21
I3
I7
I29
I-20
I-33
I-20
I-7
tp1634
a(I-3
I55
I-2
I-2
I-9
I-5
I-6
I-6
tp1635
a(I-11
I-20
I9
I1
I28
I-2
I0
I1
tp1636
a(I46
I7
I-7
I8
I-7
I25
I10
I13
tp1637
a(lp1638
F0.69989013671875
aF-0.05657958984375
aF0.6573486328125
aF0.27349853515625
aa(I-86
I9
I-5
I5
I27
I14
I15
I-7
tp1639
a(I60
I2
I4
I-3
I13
I-13
I-14
I9
tp1640
a(I-12
I-16
I3
I6
I7
I11
I29
I-1
tp1641
a(I-43
I-11
I-3
I15
I9
I1
I-4
I-5
tp1642
a(lp1643
F0.69940185546875
aF-0.05694580078125
aF0.65740966796875
aF0.27435302734375
aa(I2
I32
I-2
I-19
I-27
I-6
I-2
I-1
tp1644
a(I-36
I-10
I-1
I0
I-2
I-4
I-17
I-13
tp1645
a(I53
I11
I0
I-10
I-13
I-4
I7
I6
tp1646
a(I-53
I-36
I2
I-2
I0
I-1
I-12
I1
tp1647
a(I-8
I26
I13
I-7
I29
I22
I23
I14
tp1648
a(I29
I0
I0
I13
I-9
I-6
I-26
I-14
tp1649
a(lp1650
F0.6998291015625
aF-0.056884765625
aF0.65679931640625
aF0.27484130859375
aa(I-3
I15
I-8
I9
I-14
I-11
I7
I6
tp1651
a(I-82
I9
I-3
I-34
I0
I15
I20
I-7
tp1652
a(I-20
I3
I-5
I39
I29
I-6
I-9
I2
tp1653
a(I-6
I-31
I-8
I-33
I-18
I13
I-3
I2
tp1654
a(I-84
I-73
I-17
I-13
I16
I-6
I6
I1
tp1655
a(I60
I15
I-4
I-8
I-14
I-3
I-12
I-5
tp1656
a(I-25
I49
I1
I9
I11
I0
I-30
I-5
tp1657
a(I8
I27
I25
I7
I11
I5
I33
I11
tp1658
a(lp1659
F0.69989013671875
aF-0.05755615234375
aF0.65692138671875
aF0.27423095703125
aa(I-19
I-72
I1
I-11
I-18
I16
I4
I-1
tp1660
a(I-2
I65
I6
I5
I-20
I-11
I-11
I4
tp1661
a(I-1
I0
I1
I-3
I-21
I-19
I-8
I-16
tp1662
a(I45
I-26
I-24
I-18
I-4
I-1
I18
I13
tp1663
a(lp1664
F0.69989013671875
aF-0.05767822265625
aF0.65692138671875
aF0.274169921875
aa(I-25
I-45
I-3
I9
I11
I1
I-16
I-7
tp1665
a(I17
I25
I2
I11
I29
I8
I-5
I11
tp1666
a(I14
I-33
I2
I13
I12
I25
I25
I5
tp1667
a(I3
I33
I11
I-6
I-33
I-22
I-12
I-15
tp1668
a(I-42
I-9
I7
I5
I9
I12
I3
I-4
tp1669
a(I24
I-51
I-11
I15
I35
I0
I-4
I-4
tp1670
a(lp1671
F0.69866943359375
aF-0.0592041015625
aF0.65863037109375
aF0.27294921875
aa(I7
I29
I4
I10
I39
I24
I-9
I-2
tp1672
a(I29
I11
I5
I-17
I-35
I-4
I-1
I15
tp1673
a(I-6
I-42
I-4
I27
I-7
I-10
I-6
I-6
tp1674
a(I1
I16
I-5
I-10
I-36
I-19
I-14
I-8
tp1675
a(I70
I-19
I-16
I3
I15
I16
I6
I4
tp1676
a(I17
I7
I6
I12
I15
I14
I2
I-1
tp1677
a(I-69
I0
I20
I-3
I-37
I-31
I-9
I-9
tp1678
a(I45
I-10
I-1
I-8
I-8
I-9
I-16
I0
tp1679
a(lp1680
F0.699951171875
aF-0.06109619140625
aF0.656982421875
aF0.27325439453125
aa(I-4
I25
I5
I-2
I0
I4
I-4
I3
tp1681
a(I-32
I-34
I3
I-1
I15
I13
I12
I-7
tp1682
a(lp1683
F0.7000732421875
aF-0.0616455078125
aF0.6568603515625
aF0.2730712890625
aa(I52
I24
I-2
I-4
I-13
I3
I19
I13
tp1684
a(I-17
I14
I22
I10
I23
I5
I-6
I2
tp1685
a(I5
I-43
I-9
I-3
I8
I5
I-4
I-6
tp1686
a(I32
I17
I5
I-17
I-28
I-17
I4
I2
tp1687
a(lp1688
F0.6998291015625
aF-0.0618896484375
aF0.65740966796875
aF0.27227783203125
aa(lp1689
F0.69976806640625
aF-0.06134033203125
aF0.657470703125
aF0.27252197265625
aa(I-31
I-34
I-5
I9
I3
I-2
I8
I0
tp1690
a(I48
I-5
I-8
I-9
I-11
I0
I-36
I-16
tp1691
a(I-7
I21
I22
I-11
I-9
I-15
I3
I4
tp1692
a(I-28
I9
I-12
I9
I11
I13
I2
I1
tp1693
a(lp1694
F0.70013427734375
aF-0.060791015625
aF0.6568603515625
aF0.2730712890625
aa(I-69
I54
I16
I-22
I-74
I-25
I-13
I-10
tp1695
a(I-18
I-78
I-26
I1
I-2
I-1
I-6
I-2
tp1696
a(lp1697
F0.701171875
aF-0.060302734375
aF0.656005859375
aF0.2725830078125
aa(I24
I11
I14
I-14
I33
I12
I12
I1
tp1698
a(I43
I-29
I3
I13
I-8
I-18
I-28
I-5
tp1699
a(I-16
I-14
I-13
I4
I19
I25
I14
I8
tp1700
a(I-9
I-14
I-8
I-7
I-18
I-21
I-11
I-2
tp1701
a(lp1702
F0.700439453125
aF-0.06048583984375
aF0.6571044921875
aF0.27166748046875
aa(I8
I-21
I-4
I-6
I-29
I-9
I-16
I-1
tp1703
a(I-8
I-31
I2
I-23
I-40
I-14
I9
I-3
tp1704
a(I41
I-22
I-3
I8
I28
I-9
I-8
I-4
tp1705
a(I31
I1
I3
I-7
I-26
I-5
I-7
I3
tp1706
a(lp1707
F0.7005615234375
aF-0.06005859375
aF0.6571044921875
aF0.27154541015625
aa(I-11
I-25
I5
I1
I0
I0
I10
I-4
tp1708
a(I-23
I-108
I-12
I-13
I-35
I-19
I-18
I-19
tp1709
a(lp1710
F0.700927734375
aF-0.060546875
aF0.65655517578125
aF0.271728515625
aa(I31
I20
I16
I-10
I21
I-3
I-16
I2
tp1711
a(I-21
I-20
I-20
I24
I15
I22
I-3
I0
tp1712
a(I20
I0
I5
I-2
I-4
I-28
I2
I-4
tp1713
a(I-2
I11
I-3
I5
I-1
I10
I10
I-2
tp1714
a(lp1715
F0.70098876953125
aF-0.06103515625
aF0.65667724609375
aF0.271240234375
aa(I-31
I-37
I6
I16
I21
I10
I0
I5
tp1716
a(I-5
I28
I6
I12
I43
I15
I7
I-9
tp1717
a(I-31
I19
I-3
I-10
I-17
I3
I-6
I-4
tp1718
a(I13
I-44
I-8
I-21
I-38
I-12
I-1
I8
tp1719
a(lp1720
F0.70098876953125
aF-0.06097412109375
aF0.65667724609375
aF0.271240234375
aa(lp1721
F0.7012939453125
aF-0.06121826171875
aF0.65643310546875
aF0.27099609375
aa(I-25
I-6
I-14
I10
I-36
I-14
I1
I0
tp1722
a(I21
I-33
I2
I-17
I5
I-11
I-9
I-6
tp1723
a(I-8
I44
I-10
I-23
I9
I9
I-10
I-9
tp1724
a(I2
I-38
I7
I16
I-9
I-6
I17
I-3
tp1725
a(lp1726
F0.70147705078125
aF-0.0616455078125
aF0.65631103515625
aF0.27081298828125
aa(I34
I55
I6
I10
I-6
I-7
I-33
I-2
tp1727
a(I-15
I-4
I-4
I-22
I-25
I-1
I15
I-5
tp1728
a(lp1729
F0.70123291015625
aF-0.06243896484375
aF0.65692138671875
aF0.2696533203125
aa(I-44
I-13
I4
I5
I-29
I-13
I15
I-4
tp1730
a(I62
I21
I-10
I-15
I-8
I-15
I-5
I0
tp1731
aasS'fist-up'
p1732
(lp1733
(lp1734
(lp1735
F0.936279296875
aF-0.13360595703125
aF0.28509521484375
aF0.1553955078125
aa(I-1
I-2
I-4
I0
I-1
I-2
I-1
I-2
tp1736
a(I0
I-6
I-25
I-7
I-2
I-2
I-1
I2
tp1737
a(lp1738
F0.93634033203125
aF-0.1336669921875
aF0.2850341796875
aF0.15521240234375
aa(I-3
I-7
I-13
I-3
I-4
I-3
I-2
I-2
tp1739
a(I4
I8
I40
I9
I1
I1
I3
I5
tp1740
a(I-1
I1
I2
I-1
I-1
I-1
I-3
I-5
tp1741
a(I-2
I1
I-1
I-4
I0
I0
I-1
I-1
tp1742
a(lp1743
F0.93634033203125
aF-0.1336669921875
aF0.28509521484375
aF0.1551513671875
aa(I-1
I-1
I22
I1
I-2
I1
I0
I1
tp1744
a(I-2
I-5
I-18
I0
I-4
I-3
I-2
I-1
tp1745
a(I-3
I-2
I6
I-5
I-3
I-1
I-2
I-1
tp1746
a(I0
I-2
I-7
I4
I-1
I-1
I-1
I0
tp1747
a(lp1748
F0.93634033203125
aF-0.1336669921875
aF0.28509521484375
aF0.1551513671875
aa(lp1749
F0.936279296875
aF-0.13372802734375
aF0.28521728515625
aF0.1551513671875
aa(I1
I3
I12
I3
I-2
I-2
I0
I4
tp1750
a(I-7
I-14
I-9
I-5
I-1
I-1
I-2
I-10
tp1751
a(I-1
I6
I4
I-2
I1
I-2
I1
I-1
tp1752
a(I-3
I2
I-2
I1
I-2
I-1
I0
I-1
tp1753
a(lp1754
F0.936279296875
aF-0.13372802734375
aF0.2852783203125
aF0.1551513671875
aa(I-2
I-6
I-10
I-2
I-3
I-3
I0
I0
tp1755
a(I-2
I2
I-22
I-2
I-3
I-2
I-2
I0
tp1756
a(lp1757
F0.936279296875
aF-0.13360595703125
aF0.2852783203125
aF0.155029296875
aa(I-1
I-11
I3
I0
I-1
I-2
I0
I-2
tp1758
a(I0
I3
I-10
I0
I0
I1
I0
I0
tp1759
a(I2
I-6
I3
I1
I-2
I-1
I-1
I1
tp1760
a(I-5
I-5
I-12
I-6
I-1
I-1
I0
I-4
tp1761
a(lp1762
F0.936279296875
aF-0.1336669921875
aF0.2852783203125
aF0.15496826171875
aa(I0
I20
I-1
I4
I0
I0
I-1
I0
tp1763
a(I-1
I-2
I12
I-1
I0
I0
I-1
I-1
tp1764
a(I-3
I-5
I-8
I-5
I-3
I1
I0
I-1
tp1765
a(I-2
I1
I5
I1
I-1
I-1
I0
I-2
tp1766
a(lp1767
F0.93634033203125
aF-0.133544921875
aF0.2852783203125
aF0.15484619140625
aa(I-4
I-4
I-22
I-11
I-3
I-3
I-1
I-2
tp1768
a(I1
I-5
I3
I0
I0
I-2
I-2
I0
tp1769
a(I-3
I12
I16
I-1
I-1
I1
I-1
I-1
tp1770
a(I-2
I-19
I-50
I-5
I-2
I-1
I0
I0
tp1771
a(lp1772
F0.936279296875
aF-0.133544921875
aF0.285400390625
aF0.15484619140625
aa(I-1
I-8
I6
I1
I-2
I-2
I-2
I-1
tp1773
a(I0
I12
I-15
I3
I0
I0
I1
I0
tp1774
a(I-1
I-3
I-22
I-8
I-2
I-2
I0
I-2
tp1775
a(I1
I4
I11
I5
I-2
I0
I1
I4
tp1776
a(lp1777
F0.936279296875
aF-0.1336669921875
aF0.2855224609375
aF0.15478515625
aa(I2
I9
I18
I-3
I-1
I0
I-1
I0
tp1778
a(I0
I-1
I-6
I5
I1
I-1
I-3
I-1
tp1779
a(I-3
I-8
I-18
I-15
I-1
I-3
I-1
I-3
tp1780
a(I2
I9
I8
I5
I1
I-1
I0
I1
tp1781
a(lp1782
F0.93634033203125
aF-0.13336181640625
aF0.285400390625
aF0.15460205078125
aa(I-5
I-2
I10
I7
I0
I-1
I-1
I-1
tp1783
a(I-3
I-7
I-1
I-8
I-4
I-2
I-2
I0
tp1784
a(I0
I11
I-5
I-3
I-2
I-1
I-2
I-1
tp1785
a(I3
I-1
I24
I7
I-1
I0
I0
I4
tp1786
a(lp1787
F0.93634033203125
aF-0.13336181640625
aF0.285400390625
aF0.15460205078125
aa(I0
I-11
I45
I3
I-3
I0
I-2
I0
tp1788
a(I-4
I2
I-25
I-7
I-2
I-2
I-1
I-3
tp1789
a(lp1790
F0.9364013671875
aF-0.13323974609375
aF0.28546142578125
aF0.15447998046875
aa(I0
I3
I10
I4
I-1
I-2
I0
I-1
tp1791
a(I1
I3
I-12
I-7
I-2
I0
I1
I-1
tp1792
a(I-3
I-8
I4
I1
I-1
I-2
I0
I-2
tp1793
a(I-1
I-3
I1
I1
I0
I-2
I0
I-1
tp1794
a(I5
I14
I-11
I-1
I1
I3
I-1
I2
tp1795
a(I-3
I-3
I-19
I-4
I-3
I-5
I-2
I-3
tp1796
a(lp1797
F0.93646240234375
aF-0.13311767578125
aF0.285400390625
aF0.154296875
aa(I2
I0
I24
I0
I-2
I-2
I0
I0
tp1798
a(I0
I1
I7
I0
I-3
I-2
I-1
I-1
tp1799
a(I0
I-8
I-12
I2
I1
I0
I-1
I1
tp1800
a(I-1
I2
I-7
I0
I0
I0
I-2
I0
tp1801
a(lp1802
F0.93646240234375
aF-0.133056640625
aF0.28546142578125
aF0.15423583984375
aa(I-3
I-4
I3
I-1
I-3
I-3
I-3
I-3
tp1803
a(I-1
I2
I-2
I-3
I1
I1
I1
I0
tp1804
a(I-2
I18
I-28
I-1
I0
I1
I-1
I-3
tp1805
a(I0
I14
I-8
I-3
I-1
I1
I-2
I-2
tp1806
a(lp1807
F0.93646240234375
aF-0.13323974609375
aF0.28546142578125
aF0.154052734375
aa(I0
I-2
I1
I1
I-1
I0
I-1
I0
tp1808
a(I-1
I15
I-7
I-3
I-1
I-1
I-1
I-1
tp1809
a(lp1810
F0.9364013671875
aF-0.13330078125
aF0.2855224609375
aF0.154052734375
aa(I0
I-6
I-2
I-3
I0
I-1
I0
I-1
tp1811
a(I-2
I-3
I-23
I4
I1
I-3
I0
I1
tp1812
a(I-2
I-3
I1
I-3
I-3
I0
I-2
I-3
tp1813
a(I-1
I5
I0
I2
I-1
I-1
I-2
I-1
tp1814
a(lp1815
F0.9364013671875
aF-0.13330078125
aF0.28570556640625
aF0.154052734375
aa(I-2
I0
I-10
I0
I-1
I-1
I-2
I1
tp1816
a(I-1
I-12
I11
I-1
I-1
I-1
I-1
I3
tp1817
a(I-6
I1
I14
I5
I0
I0
I-3
I-9
tp1818
a(I3
I1
I-22
I-2
I0
I0
I0
I1
tp1819
a(lp1820
F0.93634033203125
aF-0.13330078125
aF0.28570556640625
aF0.154052734375
aa(I-1
I-1
I-10
I-3
I-4
I-1
I-2
I-1
tp1821
a(I-2
I-2
I10
I5
I-1
I-4
I-4
I-3
tp1822
a(I-1
I-3
I-25
I-4
I-1
I-1
I-2
I0
tp1823
a(I0
I-5
I-11
I-2
I0
I0
I-1
I-2
tp1824
a(lp1825
F0.93634033203125
aF-0.13336181640625
aF0.28582763671875
aF0.154052734375
aa(I-2
I-9
I-29
I-2
I0
I0
I0
I-1
tp1826
a(I-2
I16
I42
I5
I1
I2
I-1
I-2
tp1827
a(I-2
I3
I7
I-1
I0
I0
I1
I-1
tp1828
a(I-1
I-6
I-14
I-10
I-3
I-1
I-3
I-1
tp1829
a(lp1830
F0.93634033203125
aF-0.13336181640625
aF0.28582763671875
aF0.15386962890625
aa(I3
I4
I25
I9
I1
I1
I0
I0
tp1831
a(I-2
I-6
I7
I-9
I-1
I-2
I-2
I1
tp1832
a(I-8
I-3
I-13
I0
I-2
I-1
I1
I-2
tp1833
a(I-2
I-5
I5
I-3
I0
I-2
I1
I-1
tp1834
a(lp1835
F0.9364013671875
aF-0.133056640625
aF0.285888671875
aF0.1536865234375
aa(I-1
I-7
I-15
I-3
I-2
I-1
I2
I0
tp1836
a(I-4
I-12
I5
I-1
I-1
I-1
I-1
I-4
tp1837
a(I0
I-5
I-15
I0
I0
I-1
I-3
I-1
tp1838
a(I0
I9
I22
I-2
I-1
I0
I-1
I2
tp1839
a(lp1840
F0.9364013671875
aF-0.13311767578125
aF0.285888671875
aF0.1536865234375
aa(I1
I8
I42
I9
I0
I-4
I-1
I0
tp1841
a(I0
I-10
I-22
I-8
I-3
I-1
I-1
I-1
tp1842
a(I3
I7
I35
I6
I1
I0
I1
I-2
tp1843
a(I0
I8
I-6
I0
I-1
I0
I1
I-1
tp1844
a(lp1845
F0.93646240234375
aF-0.13299560546875
aF0.285888671875
aF0.153564453125
aa(I-1
I-6
I-16
I-3
I-2
I0
I-1
I-1
tp1846
a(I-1
I-2
I-6
I-2
I-1
I-4
I-1
I-1
tp1847
a(I1
I0
I6
I3
I0
I-2
I0
I-1
tp1848
a(I-2
I-8
I-1
I3
I-1
I-1
I0
I-1
tp1849
a(lp1850
F0.93658447265625
aF-0.13262939453125
aF0.2857666015625
aF0.15325927734375
aa(I-3
I-9
I-23
I-8
I-1
I-2
I-2
I0
tp1851
a(I-2
I-7
I-20
I-1
I-1
I0
I0
I-1
tp1852
a(I-1
I-8
I18
I1
I1
I-2
I-2
I-5
tp1853
a(I-2
I0
I23
I3
I-2
I-3
I-1
I-1
tp1854
a(lp1855
F0.93658447265625
aF-0.13262939453125
aF0.28582763671875
aF0.15325927734375
aa(I3
I13
I10
I2
I-1
I-1
I0
I0
tp1856
a(I-3
I-7
I-4
I0
I1
I0
I-2
I-3
tp1857
a(I0
I-12
I-35
I-2
I1
I1
I1
I1
tp1858
a(I-2
I13
I-13
I-3
I-1
I0
I-1
I-5
tp1859
a(lp1860
F0.9365234375
aF-0.1326904296875
aF0.28582763671875
aF0.15325927734375
aa(I-1
I13
I18
I-3
I0
I0
I-2
I-2
tp1861
a(I0
I-17
I-9
I-1
I-1
I-1
I-1
I1
tp1862
a(lp1863
F0.93658447265625
aF-0.13250732421875
aF0.28594970703125
aF0.153076171875
aa(I-5
I-7
I-10
I-3
I0
I-1
I-1
I-3
tp1864
a(I0
I1
I-14
I-6
I0
I0
I0
I-4
tp1865
a(I3
I5
I-13
I-5
I-2
I0
I-2
I4
tp1866
a(I-3
I12
I16
I3
I-2
I-2
I-2
I-5
tp1867
a(I-1
I-1
I-1
I0
I-1
I-1
I0
I1
tp1868
a(I-1
I-9
I-14
I-6
I-3
I-1
I-1
I-2
tp1869
a(lp1870
F0.93658447265625
aF-0.132568359375
aF0.2860107421875
aF0.15301513671875
aa(I3
I8
I11
I9
I1
I-1
I1
I2
tp1871
a(I2
I-4
I-28
I-2
I-1
I-2
I-2
I1
tp1872
a(I-2
I0
I12
I-2
I-1
I0
I-3
I-5
tp1873
a(I0
I-1
I13
I-1
I1
I-2
I-2
I2
tp1874
a(I2
I2
I-18
I-14
I-3
I-2
I-2
I3
tp1875
a(I-6
I-7
I7
I-1
I-2
I-2
I-1
I-4
tp1876
a(I-2
I-10
I-14
I-2
I-2
I0
I0
I-3
tp1877
a(I-3
I-5
I-14
I-2
I-2
I-2
I-1
I0
tp1878
a(lp1879
F0.93670654296875
aF-0.13232421875
aF0.28570556640625
aF0.15277099609375
aa(I3
I6
I-4
I3
I1
I0
I0
I4
tp1880
a(I-5
I-1
I-18
I-3
I-1
I-2
I-2
I-6
tp1881
a(I-2
I-2
I-16
I-5
I1
I0
I-1
I-1
tp1882
a(I0
I-1
I38
I5
I-1
I-2
I-2
I-1
tp1883
a(lp1884
F0.936767578125
aF-0.13226318359375
aF0.28564453125
aF0.15264892578125
aa(I-1
I-1
I-4
I3
I-1
I1
I-1
I-1
tp1885
a(I-1
I4
I2
I-2
I-2
I0
I-1
I-1
tp1886
a(I1
I0
I3
I-2
I-1
I-1
I-1
I0
tp1887
a(I-2
I-3
I-12
I-6
I-2
I-1
I0
I-3
tp1888
a(lp1889
F0.77777099609375
aF0.05938720703125
aF-0.565673828125
aF0.26751708984375
aa(I-24
I-67
I-22
I-9
I-56
I-22
I11
I6
tp1890
a(I10
I30
I2
I16
I-8
I-3
I-41
I-1
tp1891
a(I-17
I30
I3
I-36
I-90
I-35
I11
I2
tp1892
a(I-8
I103
I-10
I34
I94
I33
I-18
I17
tp1893
a(lp1894
F0.7772216796875
aF0.05938720703125
aF-0.56634521484375
aF0.26763916015625
aa(I-18
I47
I18
I12
I-13
I-19
I-22
I-11
tp1895
a(I36
I91
I-7
I-29
I-119
I-79
I32
I-5
tp1896
a(I-26
I65
I0
I-59
I85
I19
I-20
I-19
tp1897
a(I18
I43
I-21
I29
I-76
I34
I-12
I15
tp1898
a(I-25
I23
I-3
I-34
I-110
I-50
I-1
I8
tp1899
a(I105
I15
I-22
I-66
I-13
I8
I-4
I-19
tp1900
a(I-59
I7
I6
I96
I24
I2
I-19
I-3
tp1901
a(I-24
I-30
I44
I31
I51
I26
I-14
I-10
tp1902
a(lp1903
F0.77667236328125
aF0.06005859375
aF-0.5670166015625
aF0.26763916015625
aa(I30
I51
I-35
I-26
I-8
I-4
I6
I-2
tp1904
a(I-69
I-76
I-26
I40
I79
I54
I-1
I-19
tp1905
a(I27
I52
I5
I-25
I-123
I-60
I-57
I26
tp1906
a(I72
I15
I-5
I-43
I64
I29
I17
I-15
tp1907
a(lp1908
F0.77813720703125
aF0.0599365234375
aF-0.5653076171875
aF0.2669677734375
aa(I-83
I27
I4
I48
I20
I30
I24
I-8
tp1909
a(I99
I-35
I21
I15
I39
I-5
I7
I18
tp1910
a(I45
I-7
I-7
I-38
I-83
I0
I-6
I21
tp1911
a(I1
I67
I-1
I9
I23
I12
I25
I16
tp1912
a(I-83
I-16
I-44
I-64
I-62
I-61
I-35
I-28
tp1913
a(I76
I65
I45
I55
I109
I35
I20
I24
tp1914
a(I-17
I40
I-2
I1
I101
I24
I16
I8
tp1915
a(I26
I37
I23
I71
I119
I78
I24
I3
tp1916
a(lp1917
F0.77435302734375
aF0.0562744140625
aF-0.570068359375
aF0.26873779296875
aa(I-123
I-46
I-4
I-25
I-54
I-9
I0
I-13
tp1918
a(I84
I67
I-1
I-121
I-74
I-67
I-41
I-1
tp1919
a(I8
I61
I6
I59
I94
I29
I9
I3
tp1920
a(I-95
I71
I9
I28
I-69
I8
I-2
I-11
tp1921
a(I34
I-15
I-33
I-57
I-14
I-48
I-27
I-2
tp1922
a(I-6
I14
I2
I-8
I36
I6
I16
I6
tp1923
a(lp1924
F0.779296875
aF0.0589599609375
aF-0.56439208984375
aF0.26568603515625
aa(I86
I5
I57
I-13
I17
I24
I-32
I11
tp1925
a(I-36
I-21
I-40
I44
I-4
I-11
I42
I-7
tp1926
a(I8
I-9
I-45
I-23
I-108
I-5
I-13
I3
tp1927
a(I-18
I45
I5
I-33
I-2
I-27
I3
I-9
tp1928
a(lp1929
F0.77972412109375
aF0.05694580078125
aF-0.5634765625
aF0.2669677734375
aa(I59
I-44
I-5
I46
I-18
I6
I-35
I0
tp1930
a(I-9
I19
I-38
I-44
I51
I2
I-26
I-16
tp1931
a(I37
I-84
I-5
I58
I2
I-13
I-20
I4
tp1932
a(I-62
I2
I-29
I-21
I-45
I4
I11
I-5
tp1933
a(I7
I78
I10
I-14
I-4
I0
I-7
I14
tp1934
a(I25
I20
I-6
I27
I53
I19
I25
I-4
tp1935
a(lp1936
F0.77960205078125
aF0.05810546875
aF-0.56396484375
aF0.2659912109375
aa(I40
I-2
I9
I-23
I-52
I-3
I-5
I6
tp1937
a(I-74
I-13
I-8
I38
I54
I5
I-4
I0
tp1938
a(I18
I21
I-21
I2
I-5
I-16
I11
I-25
tp1939
a(I-20
I10
I7
I-47
I-85
I-18
I-19
I12
tp1940
a(lp1941
F0.78045654296875
aF0.05780029296875
aF-0.56280517578125
aF0.26593017578125
aa(I11
I-6
I9
I21
I55
I-3
I-14
I0
tp1942
a(I22
I7
I23
I-24
I-17
I-14
I-42
I-2
tp1943
a(I-55
I-6
I-27
I-3
I-16
I6
I18
I-5
tp1944
a(I-20
I-21
I-3
I-3
I98
I21
I14
I-5
tp1945
a(lp1946
F0.7806396484375
aF0.058349609375
aF-0.562744140625
aF0.26544189453125
aa(lp1947
F0.7806396484375
aF0.05908203125
aF-0.56298828125
aF0.26483154296875
aa(I42
I-64
I-15
I37
I9
I-18
I29
I9
tp1948
a(I-13
I45
I17
I29
I42
I6
I-24
I-13
tp1949
a(I-4
I24
I10
I40
I0
I23
I4
I15
tp1950
a(I4
I20
I-10
I-81
I21
I5
I0
I1
tp1951
a(lp1952
F0.78045654296875
aF0.0589599609375
aF-0.56317138671875
aF0.26495361328125
aa(I-33
I39
I10
I-33
I0
I0
I-54
I-2
tp1953
a(I-8
I-17
I6
I35
I53
I2
I34
I7
tp1954
a(lp1955
F0.78106689453125
aF0.05950927734375
aF-0.56243896484375
aF0.2646484375
aa(I-10
I-27
I-35
I-30
I16
I42
I15
I19
tp1956
a(I56
I-21
I-18
I-14
I-89
I-16
I1
I-12
tp1957
a(I-5
I83
I43
I44
I64
I19
I31
I27
tp1958
a(I49
I5
I15
I-7
I-128
I-56
I-35
I-9
tp1959
a(lp1960
F0.78057861328125
aF0.058837890625
aF-0.56298828125
aF0.2650146484375
aa(I73
I11
I-46
I31
I-11
I25
I-8
I7
tp1961
a(I36
I10
I34
I-20
I59
I-6
I6
I-15
tp1962
a(I-49
I-40
I-7
I42
I-5
I-11
I-8
I-6
tp1963
a(I-82
I-34
I-36
I-49
I-19
I-4
I6
I-16
tp1964
a(lp1965
F0.78033447265625
aF0.05859375
aF-0.56329345703125
aF0.26513671875
aa(lp1966
F0.7799072265625
aF0.058837890625
aF-0.56439208984375
aF0.2640380859375
aa(I7
I-55
I12
I71
I109
I14
I-16
I-3
tp1967
a(I12
I58
I-8
I3
I-7
I102
I27
I33
tp1968
a(I-11
I93
I34
I45
I-6
I-75
I16
I-1
tp1969
a(I37
I-7
I-6
I-27
I-50
I-20
I-37
I-20
tp1970
a(lp1971
F0.780029296875
aF0.0584716796875
aF-0.56427001953125
aF0.2640380859375
aa(I63
I6
I-2
I-20
I-2
I25
I-33
I-7
tp1972
a(I-3
I48
I24
I48
I75
I31
I11
I15
tp1973
a(lp1974
F0.78057861328125
aF0.058349609375
aF-0.56329345703125
aF0.26446533203125
aa(I-27
I-61
I16
I-2
I-47
I-18
I56
I-7
tp1975
a(I2
I83
I-17
I-26
I15
I-12
I13
I7
tp1976
a(I-2
I-11
I19
I-40
I-111
I-20
I-31
I-14
tp1977
a(I-23
I-71
I-21
I-7
I-29
I-27
I24
I-4
tp1978
a(lp1979
F0.7802734375
aF0.05865478515625
aF-0.56390380859375
aF0.26397705078125
aa(I-9
I24
I19
I6
I-20
I33
I-2
I3
tp1980
a(I-50
I0
I-34
I-2
I-37
I-45
I-9
I-19
tp1981
a(I-35
I-72
I23
I-36
I20
I38
I-9
I15
tp1982
a(I4
I72
I-20
I65
I4
I31
I17
I-3
tp1983
a(lp1984
F0.77996826171875
aF0.05816650390625
aF-0.56439208984375
aF0.26409912109375
aa(I62
I14
I3
I19
I-27
I47
I-2
I7
tp1985
a(I47
I-65
I-43
I8
I-30
I-18
I19
I-27
tp1986
a(lp1987
F0.77978515625
aF0.05718994140625
aF-0.56463623046875
aF0.26422119140625
aa(I-3
I112
I24
I-35
I-46
I-17
I5
I25
tp1988
a(I-27
I-31
I-63
I-44
I-27
I2
I3
I-14
tp1989
a(I2
I-18
I50
I60
I51
I4
I-36
I-15
tp1990
a(I-8
I60
I5
I-5
I-38
I0
I5
I-2
tp1991
a(lp1992
F0.78057861328125
aF0.05816650390625
aF-0.5640869140625
aF0.26287841796875
aa(I-14
I78
I70
I-8
I-67
I-60
I-13
I11
tp1993
a(I-9
I-41
I-31
I-29
I6
I-27
I-17
I-1
tp1994
a(I15
I42
I-22
I73
I5
I92
I41
I13
tp1995
a(I-27
I47
I-5
I-93
I-114
I-74
I35
I2
tp1996
a(lp1997
F0.78076171875
aF0.057861328125
aF-0.5638427734375
aF0.2628173828125
aa(lp1998
F0.78082275390625
aF0.05938720703125
aF-0.564208984375
aF0.26165771484375
aa(I-113
I-10
I-16
I-35
I-102
I-46
I-34
I-27
tp1999
a(I14
I4
I-14
I14
I-3
I6
I36
I12
tp2000
a(I-55
I-108
I-44
I-9
I74
I17
I15
I-14
tp2001
a(I70
I26
I51
I5
I-67
I-15
I12
I3
tp2002
a(lp2003
F0.78094482421875
aF0.06005859375
aF-0.564208984375
aF0.26104736328125
aa(I-35
I-10
I43
I19
I46
I4
I2
I-8
tp2004
a(I10
I34
I-4
I-11
I-1
I19
I-6
I3
tp2005
a(lp2006
F0.7806396484375
aF0.06005859375
aF-0.564697265625
aF0.26092529296875
aa(I-42
I-40
I-11
I12
I34
I18
I12
I-15
tp2007
a(I7
I15
I-12
I29
I31
I-10
I20
I5
tp2008
a(I58
I31
I-7
I21
I-6
I28
I-16
I36
tp2009
a(I8
I-13
I-18
I8
I57
I-10
I9
I-18
tp2010
a(lp2011
F0.78076171875
aF0.06011962890625
aF-0.564453125
aF0.2611083984375
aa(I-19
I12
I1
I-104
I-93
I-76
I18
I-14
tp2012
a(I41
I34
I-1
I-9
I34
I-35
I-15
I8
tp2013
a(I-28
I-3
I5
I7
I83
I23
I9
I-28
tp2014
a(I-80
I-10
I-2
I47
I95
I35
I51
I9
tp2015
a(lp2016
F0.780517578125
aF0.05938720703125
aF-0.56463623046875
aF0.26165771484375
aa(I84
I-61
I-4
I27
I1
I66
I3
I10
tp2017
a(I-5
I-13
I-5
I35
I25
I-5
I-17
I0
tp2018
a(I19
I29
I44
I28
I64
I41
I18
I4
tp2019
a(I86
I-42
I-35
I18
I67
I18
I8
I10
tp2020
a(lp2021
F0.77960205078125
aF0.056396484375
aF-0.5653076171875
aF0.26348876953125
aa(I-66
I42
I55
I-11
I-4
I-3
I14
I-13
tp2022
a(I-49
I-10
I10
I70
I80
I-2
I-24
I-4
tp2023
a(I51
I-59
I1
I23
I87
I-4
I-10
I9
tp2024
a(I1
I106
I-31
I-23
I-114
I-2
I-26
I3
tp2025
a(lp2026
F0.77899169921875
aF0.0548095703125
aF-0.565673828125
aF0.26483154296875
aa(I20
I-15
I-5
I-14
I-4
I-22
I-36
I-10
tp2027
a(I32
I-39
I23
I44
I104
I39
I17
I14
tp2028
a(I-11
I-15
I-16
I-1
I-16
I33
I35
I-9
tp2029
a(I39
I-43
I10
I-41
I-86
I-93
I32
I-29
tp2030
a(lp2031
F0.77862548828125
aF0.0560302734375
aF-0.56634521484375
aF0.26434326171875
aa(I-48
I-82
I-12
I40
I62
I52
I26
I-20
tp2032
a(I-36
I72
I18
I-26
I-60
I-24
I-17
I-4
tp2033
a(I8
I21
I-16
I-45
I-82
I-50
I-32
I-7
tp2034
a(I32
I40
I-19
I-10
I15
I0
I-3
I-2
tp2035
a(lp2036
F0.77874755859375
aF0.0567626953125
aF-0.56610107421875
aF0.26422119140625
aa(I-5
I-21
I-27
I-16
I11
I-7
I-2
I-9
tp2037
a(I29
I23
I11
I36
I19
I5
I-10
I7
tp2038
a(lp2039
F0.780029296875
aF0.05767822265625
aF-0.56439208984375
aF0.263916015625
aa(I-9
I-29
I-25
I-20
I34
I32
I1
I-1
tp2040
a(I28
I22
I0
I70
I-37
I-9
I-17
I9
tp2041
a(I28
I-46
I-24
I-60
I-48
I-26
I8
I-27
tp2042
a(I-18
I-39
I-15
I38
I82
I2
I23
I11
tp2043
a(I14
I-18
I-46
I-21
I7
I-16
I-40
I-7
tp2044
a(I56
I14
I32
I-17
I29
I39
I9
I13
tp2045
a(lp2046
F0.78021240234375
aF0.0589599609375
aF-0.564453125
aF0.262939453125
aa(I-46
I-49
I-28
I24
I-43
I-77
I-39
I-28
tp2047
a(I50
I75
I7
I70
I104
I96
I40
I12
tp2048
a(I35
I38
I41
I-77
I-109
I-75
I13
I0
tp2049
a(I-47
I-26
I-31
I-80
I44
I-35
I-73
I-8
tp2050
a(lp2051
F0.77947998046875
aF0.0576171875
aF-0.565185546875
aF0.26385498046875
aa(I37
I104
I21
I56
I105
I52
I7
I8
tp2052
a(I-91
I-28
I-15
I8
I-84
I10
I33
I-2
tp2053
a(I12
I-66
I64
I-41
I60
I-29
I-62
I-7
tp2054
a(I-27
I31
I-56
I-71
I-111
I-63
I62
I-32
tp2055
a(lp2056
F0.77911376953125
aF0.0570068359375
aF-0.56561279296875
aF0.2640380859375
aa(I-33
I11
I-10
I51
I63
I40
I27
I7
tp2057
a(I43
I79
I3
I-7
I-46
I-10
I-22
I20
tp2058
a(lp2059
F0.7774658203125
aF0.0543212890625
aF-0.56719970703125
aF0.2662353515625
aa(I-56
I-52
I33
I21
I99
I-28
I18
I10
tp2060
a(I-26
I-41
I-45
I-75
I18
I-5
I5
I-5
tp2061
a(I-10
I-23
I-15
I-60
I-108
I-40
I-56
I-26
tp2062
a(I68
I-21
I-43
I58
I127
I66
I65
I14
tp2063
a(lp2064
F0.77569580078125
aF0.052490234375
aF-0.5692138671875
aF0.2674560546875
aa(I-73
I53
I-9
I-28
I-112
I-70
I-20
I-20
tp2065
a(I39
I-4
I11
I-35
I-37
I-34
I-8
I-7
tp2066
a(I-22
I-62
I-39
I-2
I86
I45
I38
I9
tp2067
a(I17
I-90
I8
I41
I54
I27
I-24
I-9
tp2068
a(lp2069
F0.77496337890625
aF0.05169677734375
aF-0.5699462890625
aF0.26812744140625
aa(lp2070
F0.7745361328125
aF0.0504150390625
aF-0.57025146484375
aF0.26885986328125
aa(I49
I-5
I-17
I101
I100
I61
I73
I5
tp2071
a(I-45
I-21
I10
I-69
I-97
I6
I-9
I-11
tp2072
a(I-3
I-55
I-37
I-52
I45
I-46
I-31
I16
tp2073
a(I-66
I-9
I-49
I-10
I83
I8
I-33
I-5
tp2074
a(lp2075
F0.77520751953125
aF0.04901123046875
aF-0.56951904296875
aF0.268798828125
aa(I48
I27
I-5
I0
I-67
I-72
I-18
I17
tp2076
a(I-60
I-6
I9
I57
I71
I55
I23
I4
tp2077
a(lp2078
F0.77789306640625
aF0.04913330078125
aF-0.56634521484375
aF0.2677001953125
aa(I80
I-29
I-1
I-84
I-128
I-83
I-23
I-39
tp2079
a(I-10
I15
I-8
I-8
I100
I-34
I2
I-12
tp2080
a(I-9
I-36
I21
I40
I27
I51
I-5
I-8
tp2081
a(I10
I97
I32
I1
I23
I-17
I-31
I-2
tp2082
a(lp2083
F0.77764892578125
aF0.05194091796875
aF-0.5657958984375
aF0.26904296875
aa(I36
I55
I40
I45
I-4
I-20
I21
I19
tp2084
a(I30
I21
I-68
I-49
I-67
I-40
I-26
I-10
tp2085
a(I-25
I40
I83
I-12
I-18
I5
I36
I2
tp2086
a(I11
I88
I4
I22
I-13
I2
I8
I-6
tp2087
a(lp2088
F0.7774658203125
aF0.05401611328125
aF-0.5660400390625
aF0.2686767578125
aa(I69
I-59
I0
I-52
I-82
I-84
I-58
I11
tp2089
a(I-62
I-58
I-5
I-15
I-1
I17
I45
I9
tp2090
a(I-7
I-37
I-31
I-13
I-94
I-3
I8
I-2
tp2091
a(I-14
I-101
I9
I3
I-25
I-3
I-2
I-3
tp2092
a(lp2093
F0.7763671875
aF0.0567626953125
aF-0.5667724609375
aF0.26971435546875
aa(I-76
I95
I25
I15
I8
I24
I-15
I-1
tp2094
a(I1
I9
I31
I6
I-61
I-52
I-5
I-4
tp2095
a(I-33
I-7
I8
I-15
I-75
I-29
I-27
I-12
tp2096
a(I-2
I-60
I-51
I-46
I3
I-44
I2
I-10
tp2097
a(lp2098
F0.77587890625
aF0.05908203125
aF-0.5677490234375
aF0.26861572265625
aa(I-95
I-60
I-15
I20
I65
I55
I36
I28
tp2099
a(I21
I-6
I-13
I18
I-6
I-1
I-54
I-28
tp2100
a(I1
I-77
I39
I-30
I-12
I-1
I20
I-2
tp2101
a(I10
I34
I-1
I26
I-9
I-23
I14
I15
tp2102
a(lp2103
F0.77606201171875
aF0.05810546875
aF-0.56787109375
aF0.2679443359375
aa(I21
I7
I-2
I7
I-29
I-25
I-20
I-9
tp2104
a(I36
I-40
I0
I-4
I17
I-6
I-3
I15
tp2105
a(I-22
I12
I-5
I12
I16
I13
I-12
I-2
tp2106
a(I31
I27
I17
I-8
I5
I13
I17
I-5
tp2107
a(lp2108
F0.77630615234375
aF0.05767822265625
aF-0.567626953125
aF0.26800537109375
aa(I61
I35
I28
I18
I63
I9
I-21
I-10
tp2109
a(I17
I-55
I-50
I-16
I36
I36
I-6
I17
tp2110
a(lp2111
F0.7774658203125
aF0.05780029296875
aF-0.5662841796875
aF0.26739501953125
aa(I-46
I-58
I22
I24
I-46
I-37
I-23
I-25
tp2112
a(I4
I57
I-6
I-26
I42
I43
I29
I11
tp2113
a(I-15
I22
I-17
I-17
I-83
I-63
I-48
I5
tp2114
a(I-25
I-1
I18
I30
I78
I-3
I-41
I-47
tp2115
a(I-20
I5
I-24
I23
I24
I33
I-15
I15
tp2116
a(I-22
I-2
I22
I-56
I-47
I-33
I13
I3
tp2117
a(lp2118
F0.7777099609375
aF0.05804443359375
aF-0.56591796875
aF0.2674560546875
aa(I-31
I19
I14
I89
I84
I6
I-47
I-32
tp2119
a(I79
I27
I23
I21
I-35
I63
I65
I23
tp2120
a(I20
I23
I-38
I-66
I-59
I-101
I-37
I0
tp2121
a(I-49
I-4
I-34
I-68
I-8
I-15
I8
I-21
tp2122
a(lp2123
F0.77740478515625
aF0.05908203125
aF-0.5665283203125
aF0.26678466796875
aa(I70
I-8
I-2
I-17
I19
I6
I-12
I21
tp2124
a(I-2
I94
I23
I27
I-11
I13
I25
I-5
tp2125
a(I48
I-18
I1
I-23
I-46
I-9
I3
I8
tp2126
a(I8
I20
I2
I48
I127
I70
I-8
I9
tp2127
a(lp2128
F0.777099609375
aF0.05889892578125
aF-0.56683349609375
aF0.2669677734375
aa(I8
I-16
I24
I-6
I-57
I20
I62
I4
tp2129
a(I-38
I16
I1
I3
I5
I-12
I-19
I-13
tp2130
a(lp2131
F0.777099609375
aF0.0592041015625
aF-0.566650390625
aF0.267333984375
aa(I23
I-34
I-4
I2
I-12
I2
I-21
I-2
tp2132
a(I-22
I8
I-12
I-22
I-22
I-31
I-15
I-6
tp2133
a(I96
I63
I11
I32
I74
I39
I29
I17
tp2134
a(I-26
I-28
I9
I19
I-11
I15
I34
I-16
tp2135
a(lp2136
F0.77728271484375
aF0.05999755859375
aF-0.5665283203125
aF0.26690673828125
aa(I-50
I-29
I-36
I21
I8
I12
I18
I-10
tp2137
a(I-41
I59
I49
I-27
I33
I-9
I-36
I-2
tp2138
a(I64
I26
I-20
I5
I-31
I-2
I-4
I8
tp2139
a(I-105
I-34
I-4
I-9
I-47
I-16
I9
I-32
tp2140
a(lp2141
F0.77728271484375
aF0.05963134765625
aF-0.56658935546875
aF0.26690673828125
aa(I-71
I-2
I-29
I10
I-26
I-6
I-23
I-28
tp2142
a(I-11
I83
I16
I-36
I-38
I-28
I26
I4
tp2143
a(I8
I-12
I1
I-14
I14
I8
I-16
I-2
tp2144
a(I-36
I-7
I-71
I42
I83
I14
I18
I-10
tp2145
a(lp2146
F0.77801513671875
aF0.06011962890625
aF-0.56591796875
aF0.26605224609375
aa(I-34
I33
I2
I24
I97
I63
I30
I4
tp2147
a(I4
I-69
I-52
I-79
I-118
I-104
I-39
I-33
tp2148
a(I1
I-69
I93
I67
I82
I22
I-23
I-47
tp2149
a(I-88
I44
I-98
I-31
I-112
I-13
I54
I16
tp2150
a(lp2151
F0.77850341796875
aF0.0589599609375
aF-0.56494140625
aF0.266845703125
aa(I71
I-4
I47
I-30
I-44
I-22
I5
I-6
tp2152
a(I-95
I-104
I17
I0
I26
I8
I-23
I-16
tp2153
a(I0
I32
I-9
I40
I25
I20
I4
I16
tp2154
a(I-33
I-32
I5
I7
I-12
I0
I-11
I-23
tp2155
a(lp2156
F0.7777099609375
aF0.06060791015625
aF-0.56610107421875
aF0.2664794921875
aa(I7
I60
I11
I-14
I-35
I-24
I32
I5
tp2157
a(I35
I2
I-5
I-27
I10
I-10
I-31
I2
tp2158
a(I-56
I-69
I-65
I45
I3
I6
I10
I-5
tp2159
a(I-8
I-7
I78
I21
I45
I6
I-19
I-7
tp2160
a(lp2161
F0.77764892578125
aF0.0601806640625
aF-0.56597900390625
aF0.26702880859375
aa(I45
I-30
I-9
I-13
I-13
I3
I-13
I9
tp2162
a(I-4
I-40
I28
I24
I57
I6
I-19
I14
tp2163
a(lp2164
F0.77862548828125
aF0.0616455078125
aF-0.56427001953125
aF0.26727294921875
aa(I60
I19
I-20
I-11
I-38
I-21
I8
I-9
tp2165
a(I-19
I-11
I16
I-16
I-67
I-25
I1
I-12
tp2166
a(I-12
I14
I24
I5
I-31
I-18
I-3
I-2
tp2167
a(I35
I42
I-10
I4
I24
I26
I3
I24
tp2168
a(I-16
I-14
I14
I-28
I-64
I-18
I64
I-8
tp2169
a(I-29
I-3
I-8
I-49
I-90
I-48
I-33
I-24
tp2170
a(lp2171
F0.77850341796875
aF0.0596923828125
aF-0.56402587890625
aF0.26885986328125
aa(I29
I-18
I-18
I37
I97
I37
I-3
I49
tp2172
a(I-22
I12
I-17
I-13
I-27
I13
I19
I-4
tp2173
a(I-24
I-2
I25
I16
I66
I16
I9
I6
tp2174
a(I7
I43
I-8
I43
I17
I19
I24
I6
tp2175
a(lp2176
F0.77813720703125
aF0.0595703125
aF-0.56365966796875
aF0.2705078125
aa(I-23
I-1
I10
I48
I8
I15
I5
I0
tp2177
a(I36
I3
I5
I-14
I1
I-7
I-17
I-1
tp2178
a(I2
I42
I21
I34
I69
I1
I-27
I-5
tp2179
a(I-38
I33
I10
I-23
I-35
I5
I-4
I1
tp2180
a(lp2181
F0.77838134765625
aF0.0599365234375
aF-0.563232421875
aF0.27069091796875
aa(I-56
I71
I2
I26
I-5
I1
I-40
I-17
tp2182
a(I-42
I-56
I-5
I-11
I-31
I-6
I65
I-1
tp2183
a(lp2184
F0.77838134765625
aF0.06170654296875
aF-0.56298828125
aF0.27081298828125
aa(I34
I17
I-13
I8
I61
I-9
I-52
I1
tp2185
a(I-36
I12
I-19
I49
I109
I53
I69
I13
tp2186
a(I-14
I-45
I-7
I6
I-92
I-25
I22
I-17
tp2187
a(I-4
I55
I-22
I-33
I-42
I-19
I-70
I-2
tp2188
a(I10
I5
I37
I-11
I-5
I9
I3
I2
tp2189
a(I-15
I-18
I19
I42
I20
I5
I30
I19
tp2190
a(lp2191
F0.77777099609375
aF0.06451416015625
aF-0.56353759765625
aF0.27081298828125
aa(I-27
I12
I-59
I-39
I-43
I5
I21
I4
tp2192
a(I29
I59
I45
I23
I-5
I11
I40
I3
tp2193
a(I-25
I3
I-48
I-21
I22
I6
I-46
I-10
tp2194
a(I23
I37
I10
I45
I14
I36
I-26
I-5
tp2195
a(I-13
I41
I72
I66
I1
I39
I-20
I4
tp2196
a(I21
I-35
I-35
I-52
I-81
I-36
I18
I8
tp2197
a(I127
I31
I-15
I-11
I22
I1
I-9
I-1
tp2198
a(I-111
I11
I-4
I-5
I-17
I8
I4
I2
tp2199
a(lp2200
F0.77783203125
aF0.0626220703125
aF-0.56353759765625
aF0.27099609375
aa(I14
I-57
I-10
I39
I38
I-3
I-3
I-15
tp2201
a(I42
I14
I27
I18
I29
I22
I5
I5
tp2202
a(I-91
I-31
I-19
I-27
I20
I11
I43
I-1
tp2203
a(I45
I10
I19
I87
I15
I-9
I-10
I18
tp2204
a(lp2205
F0.777587890625
aF0.06072998046875
aF-0.56365966796875
aF0.2718505859375
aa(I28
I26
I-25
I-50
I-15
I13
I-30
I6
tp2206
a(I-17
I-55
I-15
I36
I14
I-26
I-19
I-6
tp2207
a(lp2208
F0.77850341796875
aF0.06085205078125
aF-0.56231689453125
aF0.27203369140625
aa(I72
I-19
I-46
I-30
I-13
I2
I104
I20
tp2209
a(I-69
I6
I16
I29
I59
I27
I-2
I-9
tp2210
a(I58
I65
I20
I32
I15
I-18
I4
I9
tp2211
a(I-29
I-21
I-29
I-12
I55
I11
I-9
I5
tp2212
a(lp2213
F0.7786865234375
aF0.06121826171875
aF-0.56195068359375
aF0.27215576171875
aa(I52
I51
I6
I19
I-4
I0
I26
I20
tp2214
a(I-122
I-8
I0
I13
I-38
I-18
I-73
I-41
tp2215
a(I50
I-7
I-34
I-37
I38
I23
I-8
I8
tp2216
a(I28
I-29
I31
I-13
I-12
I-7
I-5
I-16
tp2217
a(lp2218
F0.7786865234375
aF0.061279296875
aF-0.56121826171875
aF0.27362060546875
aa(I-78
I23
I22
I19
I14
I0
I-70
I-2
tp2219
a(I51
I17
I0
I12
I-26
I-1
I45
I16
tp2220
a(I-2
I-19
I-14
I31
I75
I19
I30
I4
tp2221
a(I-11
I45
I-25
I-15
I-7
I9
I-4
I3
tp2222
a(lp2223
F0.77874755859375
aF0.0616455078125
aF-0.56103515625
aF0.2738037109375
aa(I-38
I-19
I-46
I-24
I-47
I-19
I-11
I-23
tp2224
a(I18
I-11
I27
I33
I59
I7
I6
I11
tp2225
a(I17
I0
I14
I29
I8
I-2
I-40
I-7
tp2226
a(I-34
I-33
I-54
I-60
I-46
I-7
I7
I15
tp2227
a(lp2228
F0.77911376953125
aF0.062255859375
aF-0.5611572265625
aF0.27227783203125
aa(I-22
I-36
I13
I15
I-5
I8
I-28
I2
tp2229
a(I17
I-39
I0
I-53
I-23
I-8
I15
I3
tp2230
a(I1
I-42
I-6
I-20
I-25
I-14
I-45
I-11
tp2231
a(I15
I40
I-1
I19
I-21
I-25
I49
I10
tp2232
a(lp2233
F0.77972412109375
aF0.062255859375
aF-0.5604248046875
aF0.2720947265625
aa(I19
I58
I-6
I-11
I-36
I8
I16
I10
tp2234
a(I-74
I-9
I-42
I-29
I-22
I-25
I0
I-37
tp2235
a(lp2236
F0.7802734375
aF0.061279296875
aF-0.5596923828125
aF0.2723388671875
aa(I-60
I17
I35
I21
I58
I-4
I-51
I22
tp2237
a(I72
I27
I22
I-47
I-95
I-13
I17
I11
tp2238
a(I-14
I23
I-12
I-1
I34
I9
I2
I1
tp2239
a(I-28
I-67
I-22
I69
I78
I30
I6
I-7
tp2240
a(I86
I-8
I15
I-21
I-54
I16
I-5
I-7
tp2241
a(I-16
I50
I31
I7
I18
I-6
I-5
I14
tp2242
a(lp2243
F0.77984619140625
aF0.06060791015625
aF-0.560302734375
aF0.2724609375
aa(I10
I-36
I-70
I12
I25
I17
I0
I-22
tp2244
a(I-27
I15
I15
I-22
I-61
I-20
I22
I7
tp2245
a(I51
I-35
I-34
I2
I40
I-4
I-37
I-12
tp2246
a(I-68
I69
I73
I13
I-16
I2
I-17
I14
tp2247
a(I-35
I-16
I-28
I-16
I21
I-22
I-30
I-14
tp2248
a(I31
I11
I-1
I-9
I28
I12
I-29
I-2
tp2249
a(I61
I8
I20
I36
I23
I14
I27
I20
tp2250
a(I-98
I-34
I-44
I-31
I0
I8
I2
I-6
tp2251
a(lp2252
F0.78021240234375
aF0.0615234375
aF-0.55987548828125
aF0.27197265625
aa(I-7
I-36
I-12
I-35
I-59
I-1
I26
I-23
tp2253
a(I49
I10
I55
I33
I-17
I-35
I-10
I2
tp2254
a(I-54
I-24
I-8
I-14
I-37
I-5
I-23
I-20
tp2255
a(I42
I-45
I5
I-13
I1
I-21
I-13
I7
tp2256
a(lp2257
F0.77947998046875
aF0.0604248046875
aF-0.56097412109375
aF0.27203369140625
aa(I-51
I53
I-4
I-22
I-55
I-24
I-19
I-17
tp2258
a(I14
I74
I-2
I10
I4
I3
I-11
I-19
tp2259
a(I7
I15
I-8
I17
I94
I33
I27
I24
tp2260
a(I40
I29
I-19
I-4
I-49
I2
I15
I3
tp2261
a(lp2262
F0.7801513671875
aF0.06201171875
aF-0.56048583984375
aF0.27093505859375
aa(I28
I-28
I-9
I-47
I-34
I-10
I49
I5
tp2263
a(I-15
I-23
I-17
I15
I-4
I-21
I-45
I-1
tp2264
a(I-53
I-13
I-17
I-35
I-12
I10
I19
I-7
tp2265
a(I49
I30
I13
I19
I3
I2
I15
I1
tp2266
a(lp2267
F0.7802734375
aF0.06201171875
aF-0.56036376953125
aF0.27069091796875
aa(I89
I18
I25
I8
I84
I-3
I-4
I13
tp2268
a(I5
I-34
I-14
I-22
I-88
I5
I7
I-17
tp2269
a(I21
I60
I-10
I-36
I-80
I-60
I-27
I-12
tp2270
a(I-36
I1
I6
I1
I54
I10
I-1
I-13
tp2271
a(lp2272
F0.7803955078125
aF0.0615234375
aF-0.5601806640625
aF0.270751953125
aa(I90
I34
I21
I19
I13
I15
I27
I15
tp2273
a(I-79
I-71
I-39
I-36
I60
I23
I-2
I-5
tp2274
a(I-20
I-22
I-23
I-24
I-47
I-16
I-10
I-6
tp2275
a(I38
I-9
I32
I-2
I14
I0
I-23
I16
tp2276
a(lp2277
F0.7808837890625
aF0.06219482421875
aF-0.56005859375
aF0.26959228515625
aa(I-57
I-9
I-2
I-11
I81
I37
I75
I12
tp2278
a(I106
I32
I0
I17
I-103
I-57
I-77
I0
tp2279
a(I-43
I-22
I16
I-17
I11
I32
I-1
I-4
tp2280
a(I-53
I-34
I-50
I30
I89
I24
I41
I-8
tp2281
a(lp2282
F0.77978515625
aF0.0587158203125
aF-0.561279296875
aF0.2708740234375
aa(I38
I20
I39
I9
I-32
I-18
I-22
I7
tp2283
a(I29
I-41
I-43
I-76
I28
I20
I28
I21
tp2284
a(I-52
I-10
I42
I55
I10
I-7
I3
I-16
tp2285
a(I-104
I18
I-12
I16
I-24
I-23
I-17
I-22
tp2286
a(lp2287
F0.77996826171875
aF0.05926513671875
aF-0.56121826171875
aF0.27044677734375
aa(I87
I41
I16
I-40
I0
I-3
I-15
I14
tp2288
a(I42
I22
I2
I8
I-92
I-27
I-3
I0
tp2289
a(I5
I14
I-11
I-48
I35
I-16
I-12
I-14
tp2290
a(I17
I48
I-8
I33
I-13
I11
I-5
I9
tp2291
a(lp2292
F0.7801513671875
aF0.06121826171875
aF-0.56146240234375
aF0.2689208984375
aa(I-31
I-43
I-7
I-2
I7
I-7
I30
I-13
tp2293
a(I-1
I54
I8
I22
I57
I22
I-47
I15
tp2294
aa(lp2295
(I-87
I20
I19
I29
I43
I61
I37
I-20
tp2296
a(I-124
I-15
I-34
I-39
I-36
I-82
I-46
I-25
tp2297
a(lp2298
F0.75469970703125
aF0.111572265625
aF-0.55316162109375
aF0.33453369140625
aa(I37
I75
I-1
I-4
I123
I34
I54
I16
tp2299
a(I-13
I-18
I33
I71
I55
I18
I23
I-4
tp2300
a(I28
I-44
I15
I42
I-128
I-4
I12
I-6
tp2301
a(I-43
I21
I-26
I-84
I-7
I-7
I-38
I-24
tp2302
a(lp2303
F0.75408935546875
aF0.1104736328125
aF-0.55364990234375
aF0.3355712890625
aa(I104
I-14
I-7
I18
I-20
I-65
I-28
I12
tp2304
a(I-46
I39
I-4
I-36
I56
I53
I-7
I15
tp2305
a(I-80
I79
I-17
I-29
I75
I-1
I60
I-11
tp2306
a(I-18
I-45
I13
I127
I127
I121
I-24
I-16
tp2307
a(I-42
I-80
I-34
I-10
I127
I19
I-26
I-14
tp2308
a(I38
I-21
I64
I108
I12
I-8
I11
I1
tp2309
a(lp2310
F0.753173828125
aF0.10675048828125
aF-0.55419921875
aF0.33795166015625
aa(I-4
I-4
I-24
I86
I127
I127
I26
I24
tp2311
a(I71
I-29
I44
I-42
I-128
I-106
I-33
I-7
tp2312
a(I-32
I10
I1
I-55
I-15
I-38
I-34
I3
tp2313
a(I-39
I-41
I-32
I-53
I18
I-22
I11
I-1
tp2314
a(I29
I49
I-28
I1
I102
I48
I33
I10
tp2315
a(I-34
I11
I12
I58
I-128
I-41
I2
I-4
tp2316
a(I52
I-30
I3
I3
I85
I17
I-9
I1
tp2317
a(I-13
I14
I34
I-11
I37
I52
I8
I-4
tp2318
a(lp2319
F0.75390625
aF0.10003662109375
aF-0.55224609375
aF0.34149169921875
aa(I-38
I-27
I-48
I-60
I-125
I-102
I-21
I-8
tp2320
a(I-4
I8
I2
I27
I91
I31
I-4
I7
tp2321
a(I29
I97
I8
I-24
I-125
I-43
I8
I-3
tp2322
a(I-39
I70
I-8
I-37
I-1
I-27
I-27
I-27
tp2323
a(lp2324
F0.7537841796875
aF0.10028076171875
aF-0.55267333984375
aF0.34100341796875
aa(I-7
I36
I-17
I-13
I85
I-1
I-26
I2
tp2325
a(I42
I-94
I5
I8
I-53
I4
I10
I3
tp2326
a(I-78
I4
I16
I-18
I-42
I3
I-3
I-8
tp2327
a(I-128
I-94
I-38
I11
I7
I-24
I-5
I-12
tp2328
a(lp2329
F0.75885009765625
aF0.10162353515625
aF-0.54638671875
aF0.3394775390625
aa(I-45
I30
I-2
I-29
I-39
I-20
I-25
I-19
tp2330
a(I23
I-20
I-7
I-16
I55
I14
I17
I10
tp2331
a(I-21
I12
I19
I87
I53
I45
I12
I4
tp2332
a(I42
I-36
I-10
I-76
I-83
I-29
I-3
I9
tp2333
a(lp2334
F0.75592041015625
aF0.098876953125
aF-0.550048828125
aF0.3409423828125
aa(I-67
I28
I-25
I-86
I-119
I-112
I-9
I-22
tp2335
a(I31
I57
I14
I0
I126
I-4
I-33
I-12
tp2336
a(I-67
I44
I-7
I29
I113
I29
I4
I-3
tp2337
a(I-26
I22
I10
I-4
I32
I10
I26
I28
tp2338
a(lp2339
F0.754638671875
aF0.10015869140625
aF-0.5526123046875
aF0.33917236328125
aa(I22
I-23
I-24
I10
I-61
I24
I-4
I-7
tp2340
a(I-27
I14
I5
I-33
I-27
I-3
I-21
I1
tp2341
a(I59
I67
I49
I88
I-2
I-2
I6
I20
tp2342
a(I-54
I3
I-36
I-57
I-53
I-29
I-8
I-27
tp2343
a(lp2344
F0.75518798828125
aF0.099853515625
aF-0.55224609375
aF0.3387451171875
aa(I91
I115
I50
I53
I95
I33
I20
I-16
tp2345
a(I27
I46
I-27
I-8
I36
I64
I41
I20
tp2346
a(I-42
I39
I-19
I-5
I-67
I-38
I10
I-2
tp2347
a(I27
I28
I31
I9
I-18
I-24
I-36
I2
tp2348
a(I38
I-22
I62
I23
I18
I9
I-6
I-2
tp2349
a(I-49
I-30
I11
I108
I23
I42
I19
I-22
tp2350
a(I31
I23
I-11
I-46
I-74
I-28
I-46
I27
tp2351
a(I-75
I-56
I-24
I-37
I-39
I-23
I23
I-19
tp2352
a(lp2353
F0.75592041015625
aF0.1014404296875
aF-0.55096435546875
aF0.338623046875
aa(I-80
I24
I-20
I-29
I48
I-1
I-26
I-9
tp2354
a(I127
I87
I23
I58
I42
I22
I9
I23
tp2355
a(I13
I-30
I9
I-13
I2
I4
I-6
I8
tp2356
a(I24
I7
I-1
I2
I60
I13
I25
I-21
tp2357
a(I-92
I-42
I-27
I25
I-5
I20
I41
I-11
tp2358
a(I72
I-39
I37
I-29
I-77
I-27
I-12
I-4
tp2359
a(lp2360
F0.75616455078125
aF0.10235595703125
aF-0.5511474609375
aF0.33758544921875
aa(I-1
I19
I-8
I-19
I27
I3
I-30
I26
tp2361
a(I-59
I-88
I-18
I20
I74
I-5
I-6
I-20
tp2362
a(I-50
I34
I29
I49
I127
I75
I25
I12
tp2363
a(I-60
I-14
I-12
I-9
I-113
I-26
I30
I0
tp2364
a(lp2365
F0.75701904296875
aF0.10205078125
aF-0.55023193359375
aF0.33709716796875
aa(I19
I-21
I-18
I-46
I-82
I-40
I-42
I26
tp2366
a(I-45
I-12
I-31
I-45
I-40
I-6
I-4
I-23
tp2367
a(I42
I49
I15
I18
I24
I6
I-2
I2
tp2368
a(I-84
I-41
I25
I40
I84
I38
I10
I-18
tp2369
a(I85
I-3
I-24
I-6
I-41
I-17
I-8
I-15
tp2370
a(I-25
I78
I-5
I-7
I-12
I13
I4
I-11
tp2371
a(lp2372
F0.75860595703125
aF0.10186767578125
aF-0.54937744140625
aF0.3350830078125
aa(I-40
I-97
I-5
I29
I7
I2
I-2
I-16
tp2373
a(I81
I-4
I-36
I-15
I3
I10
I23
I23
tp2374
a(I-24
I-21
I14
I-26
I17
I15
I-34
I14
tp2375
a(I-21
I5
I-12
I19
I-90
I-33
I-5
I-13
tp2376
a(lp2377
F0.75885009765625
aF0.10150146484375
aF-0.54925537109375
aF0.3348388671875
aa(I-52
I-53
I-9
I-50
I-81
I-46
I-2
I3
tp2378
a(I43
I108
I3
I-21
I24
I-6
I48
I1
tp2379
a(I-62
I-91
I-42
I-35
I17
I-16
I-44
I-19
tp2380
a(I35
I-46
I-9
I-6
I101
I30
I-5
I5
tp2381
a(lp2382
F0.7589111328125
aF0.1016845703125
aF-0.54931640625
aF0.33447265625
aa(lp2383
F0.7593994140625
aF0.1021728515625
aF-0.54876708984375
aF0.33416748046875
aa(I87
I9
I-9
I15
I80
I30
I18
I7
tp2384
a(I-17
I23
I12
I11
I-30
I-10
I-18
I-7
tp2385
a(I10
I10
I-24
I5
I43
I35
I6
I10
tp2386
a(I-10
I-32
I45
I-8
I-18
I-12
I13
I-2
tp2387
a(lp2388
F0.75958251953125
aF0.10211181640625
aF-0.54827880859375
aF0.33453369140625
aa(I-8
I48
I9
I-47
I-38
I-86
I11
I-4
tp2389
a(I19
I50
I-26
I-50
I27
I-2
I-45
I-1
tp2390
a(lp2391
F0.759521484375
aF0.10028076171875
aF-0.54815673828125
aF0.33551025390625
aa(I62
I56
I-21
I59
I10
I32
I45
I-4
tp2392
a(I-16
I43
I9
I-13
I-19
I-18
I-29
I6
tp2393
a(I38
I10
I-2
I60
I69
I23
I6
I-10
tp2394
a(I-28
I-83
I-16
I-109
I-128
I-35
I-7
I14
tp2395
a(lp2396
F0.75885009765625
aF0.09832763671875
aF-0.549072265625
aF0.3360595703125
aa(I-24
I-36
I-5
I-12
I-23
I-54
I-33
I-6
tp2397
a(I23
I88
I42
I108
I127
I47
I27
I9
tp2398
a(I-27
I-28
I-33
I29
I-61
I33
I-19
I-12
tp2399
a(I33
I61
I6
I-30
I-81
I-53
I-49
I37
tp2400
a(lp2401
F0.75885009765625
aF0.09765625
aF-0.54888916015625
aF0.33660888671875
aa(I54
I-39
I-21
I7
I-32
I-21
I2
I5
tp2402
a(I53
I18
I20
I23
I46
I24
I2
I-25
tp2403
a(lp2404
F0.75982666015625
aF0.09613037109375
aF-0.547119140625
aF0.3377685546875
aa(I-46
I-99
I-29
I21
I-19
I19
I1
I20
tp2405
a(I120
I-73
I-23
I-11
I43
I-30
I-21
I-3
tp2406
a(I-76
I53
I24
I-2
I-16
I18
I-18
I-17
tp2407
a(I12
I15
I-10
I-43
I-62
I-47
I3
I2
tp2408
a(I-18
I-85
I-42
I-97
I-50
I-14
I-64
I3
tp2409
a(I4
I11
I2
I60
I127
I48
I4
I2
tp2410
a(lp2411
F0.76007080078125
aF0.09600830078125
aF-0.54705810546875
aF0.33734130859375
aa(I-7
I8
I13
I10
I3
I-22
I-5
I9
tp2412
a(I46
I-62
I-5
I47
I84
I31
I12
I6
tp2413
a(I3
I41
I7
I22
I13
I54
I3
I-21
tp2414
a(I86
I39
I3
I-66
I-91
I-97
I-3
I25
tp2415
a(lp2416
F0.76025390625
aF0.09600830078125
aF-0.54736328125
aF0.3363037109375
aa(I-86
I-63
I-37
I32
I127
I14
I20
I13
tp2417
a(I78
I39
I2
I-61
I-98
I5
I-14
I4
tp2418
a(I17
I22
I-8
I-23
I84
I-18
I-1
I4
tp2419
a(I-70
I-3
I-8
I5
I69
I42
I22
I-25
tp2420
a(lp2421
F0.76019287109375
aF0.0958251953125
aF-0.54718017578125
aF0.3367919921875
aa(I-11
I22
I-10
I-79
I-82
I0
I-28
I18
tp2422
a(I-37
I-12
I7
I39
I-49
I-43
I4
I-28
tp2423
a(lp2424
F0.7608642578125
aF0.0963134765625
aF-0.54632568359375
aF0.3365478515625
aa(I33
I38
I-20
I-45
I41
I-4
I15
I18
tp2425
a(I61
I-13
I2
I51
I53
I21
I8
I5
tp2426
a(I-99
I-47
I-3
I40
I-10
I22
I-10
I-9
tp2427
a(I-68
I4
I-6
I-71
I-21
I-24
I38
I-8
tp2428
a(lp2429
F0.76141357421875
aF0.0968017578125
aF-0.54559326171875
aF0.33642578125
aa(I63
I-86
I8
I11
I9
I-9
I2
I5
tp2430
a(I-24
I8
I-13
I21
I113
I45
I23
I18
tp2431
a(I4
I54
I26
I28
I-59
I11
I34
I12
tp2432
a(I95
I-40
I-4
I9
I15
I-11
I-48
I-12
tp2433
a(lp2434
F0.76153564453125
aF0.096923828125
aF-0.5455322265625
aF0.33612060546875
aa(lp2435
F0.76239013671875
aF0.09710693359375
aF-0.54449462890625
aF0.33587646484375
aa(I56
I-5
I-4
I-24
I-3
I-9
I-30
I-16
tp2436
a(I12
I17
I14
I30
I-3
I3
I37
I6
tp2437
a(I-33
I-20
I-23
I0
I35
I-4
I8
I-23
tp2438
a(I79
I-2
I27
I23
I-3
I15
I4
I38
tp2439
a(lp2440
F0.76287841796875
aF0.097412109375
aF-0.5440673828125
aF0.33538818359375
aa(I91
I-33
I0
I-21
I-65
I-7
I24
I20
tp2441
a(I3
I86
I0
I-24
I-45
I-46
I-22
I-1
tp2442
a(lp2443
F0.76177978515625
aF0.09454345703125
aF-0.545166015625
aF0.3370361328125
aa(I13
I-62
I-33
I-6
I93
I13
I-3
I-17
tp2444
a(I-12
I64
I61
I33
I47
I5
I-6
I10
tp2445
a(I-11
I-24
I-17
I32
I74
I41
I5
I-15
tp2446
a(I-103
I-60
I1
I-18
I-54
I-28
I12
I-1
tp2447
a(lp2448
F0.76104736328125
aF0.0904541015625
aF-0.54547119140625
aF0.33929443359375
aa(I29
I2
I-20
I-20
I-73
I-8
I18
I-7
tp2449
a(I23
I43
I1
I-27
I-26
I-10
I-13
I-7
tp2450
a(I35
I39
I-9
I-25
I44
I-6
I-6
I18
tp2451
a(I94
I7
I-6
I30
I43
I21
I6
I5
tp2452
a(lp2453
F0.7608642578125
aF0.0904541015625
aF-0.5452880859375
aF0.33990478515625
aa(I-14
I16
I25
I11
I-12
I-17
I6
I9
tp2454
a(I14
I-23
I-37
I-36
I-3
I23
I1
I9
tp2455
a(I-114
I83
I18
I26
I17
I-2
I-18
I-38
tp2456
a(I52
I13
I26
I102
I127
I90
I31
I26
tp2457
a(lp2458
F0.76043701171875
aF0.09088134765625
aF-0.54559326171875
aF0.34014892578125
aa(I127
I-67
I-11
I-52
I-128
I-52
I39
I-8
tp2459
a(I-85
I-48
I-19
I-18
I46
I-29
I-48
I-15
tp2460
a(I-12
I23
I0
I-49
I-73
I-11
I-53
I-26
tp2461
a(I-87
I79
I-20
I-67
I-62
I-1
I-13
I-1
tp2462
a(lp2463
F0.7603759765625
aF0.0909423828125
aF-0.54571533203125
aF0.3402099609375
aa(I62
I23
I4
I48
I-7
I-4
I13
I-17
tp2464
a(I9
I48
I0
I51
I29
I19
I29
I13
tp2465
a(I61
I8
I-3
I-27
I-6
I-42
I-23
I5
tp2466
a(I-71
I-20
I-26
I-15
I18
I16
I17
I12
tp2467
a(lp2468
F0.7611083984375
aF0.091796875
aF-0.5450439453125
aF0.3394775390625
aa(I-76
I9
I-24
I-94
I-112
I-55
I-4
I-31
tp2469
a(I-97
I-39
I0
I5
I-30
I-24
I-27
I-27
tp2470
a(I24
I-58
I-17
I-6
I65
I26
I-13
I-1
tp2471
a(I-107
I-84
I-7
I50
I-18
I0
I-10
I-7
tp2472
a(lp2473
F0.76123046875
aF0.091796875
aF-0.544921875
aF0.33935546875
aa(I-62
I-25
I-16
I-54
I-47
I-1
I25
I-2
tp2474
a(I5
I19
I-7
I25
I-4
I-26
I-42
I-8
tp2475
a(lp2476
F0.7603759765625
aF0.09320068359375
aF-0.54644775390625
aF0.33837890625
aa(I-17
I-12
I13
I-11
I13
I16
I-19
I-5
tp2477
a(I23
I18
I1
I-2
I13
I14
I6
I0
tp2478
a(I-52
I-15
I-8
I-6
I-13
I-33
I-41
I-26
tp2479
a(I81
I40
I-15
I6
I15
I17
I15
I28
tp2480
a(I48
I79
I51
I20
I-4
I24
I22
I24
tp2481
a(I3
I24
I-52
I1
I17
I2
I10
I4
tp2482
a(lp2483
F0.7603759765625
aF0.0941162109375
aF-0.54644775390625
aF0.33819580078125
aa(I-2
I-54
I13
I-33
I-11
I-19
I13
I17
tp2484
a(I29
I75
I14
I29
I0
I-13
I-22
I-2
tp2485
a(I19
I-16
I17
I-22
I-7
I5
I-3
I-15
tp2486
a(I34
I-3
I12
I52
I80
I1
I-18
I12
tp2487
a(lp2488
F0.7606201171875
aF0.094482421875
aF-0.54571533203125
aF0.33868408203125
aa(I56
I-14
I7
I27
I29
I20
I1
I17
tp2489
a(I-14
I17
I-13
I-35
I-11
I-28
I16
I-3
tp2490
a(I-51
I38
I-17
I14
I32
I13
I-9
I3
tp2491
a(I22
I-61
I-2
I0
I-41
I23
I-2
I-9
tp2492
a(lp2493
F0.76068115234375
aF0.093994140625
aF-0.5455322265625
aF0.33892822265625
aa(I29
I-59
I-15
I-84
I-8
I6
I7
I7
tp2494
a(I-125
I6
I13
I78
I34
I19
I23
I-12
tp2495
a(lp2496
F0.759765625
aF0.094482421875
aF-0.5465087890625
aF0.33929443359375
aa(I49
I31
I42
I39
I-6
I-5
I-24
I-16
tp2497
a(I95
I26
I-14
I-6
I13
I21
I40
I19
tp2498
a(I-68
I43
I-23
I-29
I-23
I-40
I-32
I-3
tp2499
a(I-2
I-16
I37
I-32
I-27
I11
I-49
I-1
tp2500
a(lp2501
F0.7598876953125
aF0.09478759765625
aF-0.5462646484375
aF0.33935546875
aa(I-12
I60
I15
I18
I74
I35
I15
I-1
tp2502
a(I58
I-50
I-7
I75
I69
I11
I30
I11
tp2503
a(I3
I-37
I19
I-15
I-112
I-25
I-52
I-25
tp2504
a(I-17
I-37
I-22
I-27
I-14
I-33
I-2
I-9
tp2505
a(lp2506
F0.75982666015625
aF0.094482421875
aF-0.546630859375
aF0.3389892578125
aa(I-102
I-22
I0
I20
I16
I-1
I-15
I-21
tp2507
a(I84
I65
I5
I16
I49
I28
I50
I22
tp2508
a(I-38
I-52
I-19
I21
I-4
I7
I-9
I-15
tp2509
a(I-34
I59
I3
I-4
I-38
I-38
I-34
I-25
tp2510
a(lp2511
F0.759521484375
aF0.09515380859375
aF-0.5472412109375
aF0.33843994140625
aa(I69
I-49
I10
I5
I0
I2
I32
I42
tp2512
a(I-26
I68
I11
I-20
I-26
I-5
I-34
I-17
tp2513
a(I-128
I-76
I12
I28
I2
I-6
I-24
I-17
tp2514
a(I103
I-78
I-26
I-16
I-1
I-2
I0
I7
tp2515
a(lp2516
F0.75982666015625
aF0.09527587890625
aF-0.5467529296875
aF0.33856201171875
aa(I0
I51
I-4
I-9
I-45
I-28
I3
I-18
tp2517
a(I-31
I19
I2
I-24
I-36
I-28
I-35
I-2
tp2518
a(I11
I36
I4
I-10
I26
I-4
I-15
I-9
tp2519
a(I-24
I-86
I1
I-3
I29
I26
I33
I4
tp2520
a(lp2521
F0.76019287109375
aF0.0963134765625
aF-0.54583740234375
aF0.3388671875
aa(I-6
I-8
I15
I48
I-37
I-5
I44
I1
tp2522
a(I29
I-5
I3
I-1
I26
I-1
I-38
I19
tp2523
a(I-113
I-3
I-31
I8
I35
I21
I3
I-31
tp2524
a(I40
I42
I6
I60
I-28
I-22
I1
I7
tp2525
a(lp2526
F0.76019287109375
aF0.09722900390625
aF-0.545654296875
aF0.3388671875
aa(I-71
I-55
I35
I100
I-9
I-20
I-26
I-4
tp2527
a(I29
I-28
I-6
I-19
I-34
I0
I32
I-7
tp2528
a(lp2529
F0.75970458984375
aF0.09619140625
aF-0.5462646484375
aF0.33935546875
aa(I-68
I16
I0
I4
I55
I2
I18
I3
tp2530
a(I127
I60
I-18
I-50
I-61
I12
I-17
I21
tp2531
a(I-27
I54
I49
I1
I-43
I-33
I11
I-20
tp2532
a(I50
I-70
I-32
I22
I68
I24
I21
I15
tp2533
a(I42
I0
I-4
I-4
I-57
I-19
I-14
I24
tp2534
a(I-71
I-31
I-3
I14
I58
I7
I35
I-15
tp2535
a(lp2536
F0.759521484375
aF0.09814453125
aF-0.5465087890625
aF0.33880615234375
aa(I27
I-45
I-2
I-14
I-17
I-6
I-35
I9
tp2537
a(I-44
I-51
I-21
I-41
I-80
I-18
I15
I-1
tp2538
a(I57
I1
I-9
I-31
I3
I-12
I-4
I-18
tp2539
a(I-9
I-54
I7
I25
I7
I9
I-19
I29
tp2540
a(lp2541
F0.75933837890625
aF0.0958251953125
aF-0.54632568359375
aF0.340087890625
aa(I18
I-17
I2
I50
I23
I13
I6
I13
tp2542
a(I71
I69
I15
I-24
I-3
I20
I52
I11
tp2543
a(I-31
I52
I21
I80
I9
I-28
I-21
I-6
tp2544
a(I46
I-14
I0
I-56
I-55
I10
I-10
I-4
tp2545
a(lp2546
F0.759521484375
aF0.0958251953125
aF-0.54595947265625
aF0.34027099609375
aa(I27
I-8
I1
I54
I127
I45
I-11
I4
tp2547
a(I-9
I30
I14
I42
I-45
I29
I16
I-4
tp2548
a(lp2549
F0.75958251953125
aF0.0960693359375
aF-0.5462646484375
aF0.33966064453125
aa(I-2
I-5
I21
I-19
I-39
I-12
I-14
I0
tp2550
a(I-81
I-19
I-24
I-72
I-85
I-50
I-28
I-13
tp2551
a(I44
I-28
I18
I-4
I5
I-26
I2
I2
tp2552
a(I16
I21
I-7
I46
I84
I48
I29
I5
tp2553
a(I-40
I38
I2
I-45
I-25
I-12
I3
I-22
tp2554
a(I2
I-33
I-1
I-15
I3
I-42
I-14
I2
tp2555
a(lp2556
F0.7593994140625
aF0.09393310546875
aF-0.546875
aF0.33966064453125
aa(I27
I-6
I-16
I31
I39
I-2
I-12
I-21
tp2557
a(I23
I57
I13
I35
I15
I26
I13
I25
tp2558
a(I0
I9
I17
I-8
I-17
I17
I10
I20
tp2559
a(I14
I3
I-4
I-60
I120
I27
I-11
I-8
tp2560
a(lp2561
F0.76007080078125
aF0.0938720703125
aF-0.546630859375
aF0.33856201171875
aa(I42
I-83
I-11
I-26
I54
I-1
I-7
I-19
tp2562
a(I17
I67
I39
I23
I24
I-12
I-16
I-6
tp2563
a(I29
I-17
I-24
I15
I53
I13
I-24
I5
tp2564
a(I-51
I-3
I-2
I29
I-54
I20
I5
I7
tp2565
a(lp2566
F0.76025390625
aF0.09423828125
aF-0.54656982421875
aF0.3382568359375
aa(I36
I-43
I11
I-34
I-64
I-23
I-19
I10
tp2567
a(I-34
I-65
I-4
I32
I32
I2
I-14
I-6
tp2568
a(lp2569
F0.76153564453125
aF0.10089111328125
aF-0.54443359375
aF0.3367919921875
aa(I2
I-26
I-22
I-7
I28
I6
I21
I-6
tp2570
a(I23
I-26
I26
I28
I42
I24
I-18
I-5
tp2571
a(I-61
I-24
I-23
I-7
I-33
I-6
I-19
I-15
tp2572
a(I3
I78
I19
I-10
I-22
I-28
I-30
I17
tp2573
a(lp2574
F0.76165771484375
aF0.1065673828125
aF-0.5439453125
aF0.33551025390625
aa(I-43
I-58
I-13
I-16
I-68
I-35
I-8
I-11
tp2575
a(I-57
I-54
I12
I-41
I17
I-2
I-9
I-26
tp2576
a(I-18
I29
I-3
I65
I-9
I10
I6
I1
tp2577
a(I4
I-21
I12
I-9
I-12
I-7
I13
I-4
tp2578
a(lp2579
F0.76141357421875
aF0.1077880859375
aF-0.544189453125
aF0.3353271484375
aa(I75
I24
I-9
I-46
I-92
I-53
I-35
I11
tp2580
a(I-82
I-36
I-14
I14
I48
I-6
I-23
I-35
tp2581
a(I-47
I39
I26
I46
I73
I31
I16
I9
tp2582
a(I24
I-1
I-25
I-71
I-89
I0
I-32
I11
tp2583
a(lp2584
F0.7596435546875
aF0.1092529296875
aF-0.54718017578125
aF0.33404541015625
aa(I-76
I21
I23
I20
I-38
I-27
I9
I-29
tp2585
a(I55
I16
I-27
I28
I12
I17
I37
I14
tp2586
a(I-21
I23
I-10
I-34
I-52
I-28
I-1
I-7
tp2587
a(I-29
I-43
I11
I29
I10
I-9
I-4
I8
tp2588
a(lp2589
F0.760986328125
aF0.1065673828125
aF-0.54632568359375
aF0.333251953125
aa(I-32
I13
I-35
I-39
I44
I25
I-3
I-4
tp2590
a(I36
I-108
I24
I15
I28
I20
I14
I-12
tp2591
a(I-70
I-4
I-9
I4
I-7
I-13
I12
I8
tp2592
a(I92
I105
I4
I-9
I-3
I-4
I-25
I0
tp2593
a(lp2594
F0.7635498046875
aF0.10723876953125
aF-0.544677734375
aF0.32977294921875
aa(I-22
I20
I-25
I-59
I16
I-47
I-19
I13
tp2595
a(I-34
I32
I3
I-8
I46
I11
I-11
I-20
tp2596
a(I82
I-15
I0
I64
I69
I26
I24
I4
tp2597
a(I84
I-19
I13
I-35
I-60
I-16
I-23
I-22
tp2598
a(lp2599
F0.76416015625
aF0.10711669921875
aF-0.54412841796875
aF0.329345703125
aa(I-18
I-35
I5
I-28
I-74
I-31
I-28
I-3
tp2600
a(I-26
I56
I25
I22
I32
I-7
I25
I1
tp2601
a(lp2602
F0.76507568359375
aF0.106201171875
aF-0.54345703125
aF0.32861328125
aa(I39
I-9
I-34
I25
I127
I75
I-3
I24
tp2603
a(I-20
I-34
I12
I-13
I-128
I-66
I-2
I-16
tp2604
a(I-71
I-13
I-17
I-52
I-33
I-39
I-60
I-9
tp2605
a(I-36
I20
I13
I42
I69
I10
I40
I16
tp2606
a(I-93
I104
I32
I26
I14
I36
I13
I-14
tp2607
a(I21
I62
I-16
I-11
I-18
I-19
I-2
I-11
tp2608
a(lp2609
F0.76666259765625
aF0.10662841796875
aF-0.5413818359375
aF0.3282470703125
aa(I89
I-55
I21
I-2
I-5
I-2
I49
I23
tp2610
a(I34
I10
I-21
I-18
I31
I3
I-28
I-15
tp2611
a(I25
I-3
I4
I31
I-6
I9
I-10
I17
tp2612
a(I-52
I-82
I-10
I-17
I-25
I-14
I-4
I-8
tp2613
a(lp2614
F0.76593017578125
aF0.1083984375
aF-0.5426025390625
aF0.3272705078125
aa(I27
I28
I16
I-7
I-52
I-24
I-5
I-16
tp2615
a(I16
I24
I5
I34
I-33
I-20
I-30
I-4
tp2616
a(I-60
I3
I-19
I-4
I47
I26
I105
I1
tp2617
a(I-16
I-16
I18
I-11
I38
I-11
I-55
I10
tp2618
a(lp2619
F0.7659912109375
aF0.10797119140625
aF-0.54266357421875
aF0.32708740234375
aa(I120
I53
I19
I-17
I-33
I-6
I-37
I16
tp2620
a(I-85
I25
I8
I31
I49
I9
I16
I-3
tp2621
a(lp2622
F0.767578125
aF0.1072998046875
aF-0.5408935546875
aF0.32666015625
aa(I-33
I-8
I-8
I17
I-8
I7
I-3
I1
tp2623
a(I58
I-56
I-2
I-47
I12
I-16
I-2
I-10
tp2624
a(I6
I-38
I-27
I8
I63
I19
I32
I16
tp2625
a(I73
I-36
I16
I29
I-117
I-33
I-33
I-14
tp2626
a(lp2627
F0.76806640625
aF0.108154296875
aF-0.5401611328125
aF0.32635498046875
aa(I-1
I63
I2
I17
I-15
I-16
I-36
I12
tp2628
a(I-30
I25
I-4
I20
I-4
I10
I7
I11
tp2629
a(I1
I-37
I-12
I-25
I-37
I-3
I21
I-4
tp2630
a(I-24
I18
I8
I-7
I-52
I-33
I-4
I-5
tp2631
a(lp2632
F0.76751708984375
aF0.10723876953125
aF-0.540771484375
aF0.3270263671875
aa(I-4
I-27
I5
I-1
I-29
I-3
I-23
I-3
tp2633
a(I23
I28
I0
I-18
I75
I12
I12
I-23
tp2634
a(I-13
I79
I15
I8
I-55
I-3
I-6
I-6
tp2635
a(I-31
I-55
I-24
I-33
I-17
I-11
I-13
I-4
tp2636
a(lp2637
F0.76708984375
aF0.108154296875
aF-0.54071044921875
aF0.3277587890625
aa(I-4
I68
I-10
I14
I3
I3
I20
I5
tp2638
a(I-55
I-128
I-14
I-13
I43
I13
I-37
I-11
tp2639
a(I10
I-16
I2
I-29
I23
I9
I-17
I5
tp2640
a(I-48
I-24
I-14
I-29
I49
I8
I18
I-20
tp2641
a(lp2642
F0.768310546875
aF0.109130859375
aF-0.53826904296875
aF0.32867431640625
aa(I-15
I16
I-7
I10
I-48
I-17
I-32
I1
tp2643
a(I100
I44
I5
I6
I-5
I0
I17
I18
tp2644
a(I13
I-16
I-8
I14
I-63
I-23
I-10
I9
tp2645
a(I-27
I-23
I3
I-35
I27
I5
I1
I-12
tp2646
a(lp2647
F0.76885986328125
aF0.1103515625
aF-0.53753662109375
aF0.32806396484375
aa(I-3
I-15
I19
I-8
I3
I0
I-53
I-15
tp2648
a(I46
I12
I-18
I18
I0
I1
I43
I9
tp2649
a(I48
I-77
I1
I-13
I-11
I3
I-11
I8
tp2650
a(I5
I43
I2
I-43
I2
I-3
I13
I23
tp2651
a(lp2652
F0.76849365234375
aF0.1114501953125
aF-0.53857421875
aF0.3270263671875
aa(I-45
I-55
I-16
I38
I-5
I-6
I15
I-25
tp2653
a(I-14
I-11
I4
I4
I26
I10
I5
I11
tp2654
a(I-26
I-12
I-17
I37
I12
I23
I17
I-10
tp2655
a(I-11
I73
I-3
I-19
I33
I18
I-7
I2
tp2656
a(lp2657
F0.76971435546875
aF0.11163330078125
aF-0.538330078125
aF0.32452392578125
aa(I-25
I0
I7
I2
I-35
I-23
I21
I-10
tp2658
a(I-17
I-31
I-28
I-23
I-9
I-18
I-45
I8
tp2659
a(I-27
I0
I22
I31
I25
I-8
I-20
I-21
tp2660
a(I-5
I-19
I-21
I42
I26
I33
I22
I9
tp2661
a(lp2662
F0.76885986328125
aF0.11334228515625
aF-0.5401611328125
aF0.32275390625
aa(I27
I-28
I-15
I-53
I-82
I-45
I-24
I-22
tp2663
a(I41
I9
I-1
I-22
I-23
I-15
I28
I-9
tp2664
a(I-8
I6
I31
I9
I69
I31
I-47
I20
tp2665
a(I24
I7
I-18
I3
I-10
I18
I43
I21
tp2666
a(lp2667
F0.7691650390625
aF0.11114501953125
aF-0.539794921875
aF0.32342529296875
aa(I52
I-11
I10
I-19
I-11
I-12
I4
I-4
tp2668
a(I-74
I98
I-5
I44
I44
I17
I13
I21
tp2669
a(I85
I53
I15
I-57
I-13
I-11
I-41
I-13
tp2670
a(I-97
I4
I13
I91
I45
I12
I-15
I-12
tp2671
a(lp2672
F0.77008056640625
aF0.11090087890625
aF-0.538818359375
aF0.32305908203125
aa(I-11
I2
I16
I-41
I-14
I19
I-15
I15
tp2673
a(I-2
I65
I-6
I0
I-25
I-33
I-11
I-4
tp2674
a(lp2675
F0.77264404296875
aF0.11126708984375
aF-0.53509521484375
aF0.3228759765625
aa(I85
I-81
I-25
I12
I32
I17
I-26
I8
tp2676
a(I29
I-28
I-9
I-4
I-21
I10
I54
I-10
tp2677
a(I-17
I52
I2
I28
I8
I9
I10
I6
tp2678
a(I-34
I-63
I-19
I-16
I-41
I5
I8
I-7
tp2679
a(I0
I-28
I8
I-32
I-18
I-7
I-17
I10
tp2680
a(I-128
I14
I-12
I-45
I32
I-14
I-28
I-55
tp2681
a(lp2682
F0.77301025390625
aF0.11102294921875
aF-0.53448486328125
aF0.3231201171875
aa(I127
I12
I23
I80
I-32
I1
I10
I48
tp2683
a(I-80
I-90
I-43
I-20
I-23
I3
I12
I0
tp2684
a(I35
I70
I51
I3
I-31
I-9
I-4
I-18
tp2685
a(I-32
I-37
I-13
I9
I16
I7
I10
I1
tp2686
a(I-65
I23
I-6
I-44
I-24
I-17
I22
I-25
tp2687
a(I-58
I-9
I3
I37
I-3
I29
I-38
I24
tp2688
a(I26
I-41
I-9
I-23
I12
I-11
I-23
I-20
tp2689
a(I-89
I24
I10
I38
I14
I6
I34
I13
tp2690
a(lp2691
F0.77325439453125
aF0.1103515625
aF-0.53411865234375
aF0.3233642578125
aa(I15
I-78
I1
I-13
I-24
I-9
I-34
I-2
tp2692
a(I-34
I20
I3
I-25
I-5
I-22
I-2
I-36
tp2693
a(I44
I-26
I-18
I9
I66
I20
I28
I4
tp2694
a(I10
I-3
I13
I-25
I-89
I-14
I-8
I-5
tp2695
a(lp2696
F0.77325439453125
aF0.110107421875
aF-0.53399658203125
aF0.32373046875
aa(I19
I-19
I23
I13
I-56
I-24
I-19
I4
tp2697
a(I-76
I-21
I-34
I-34
I10
I0
I20
I-20
tp2698
aas.